(lp0
Vroot://cms-xrdr.private.lo:2094//xrd/store/data/Run2016C/SingleMuon/NANOAOD/Nano25Oct2019-v1/40000/D7EA8E80-53B5-4E4C-AA87-C4E1E4AE6739.root
p1
aVroot://cms-xrdr.private.lo:2094//xrd/store/data/Run2016C/SingleMuon/NANOAOD/Nano25Oct2019-v1/40000/E1B554ED-BB00-634E-897B-ED16FADE948B.root
p2
a.