(lp0
Vroot://cms-xrdr.private.lo:2094//xrd/store/data/Run2016H/SingleMuon/NANOAOD/Nano25Oct2019-v1/60000/6DC7B418-8657-AC48-A8F5-54A787C168F4.root
p1
aVroot://cms-xrdr.private.lo:2094//xrd/store/data/Run2016H/SingleMuon/NANOAOD/Nano25Oct2019-v1/60000/7522DCFE-899F-854D-B819-FD0A6C1D7D27.root
p2
a.