(lp0
Vroot://cms-xrdr.private.lo:2094//xrd/store/data/Run2016F/SingleElectron/NANOAOD/Nano25Oct2019-v1/240000/D994E807-E146-9149-A26A-519AE354AF4F.root
p1
aVroot://cms-xrdr.private.lo:2094//xrd/store/data/Run2016F/SingleElectron/NANOAOD/Nano25Oct2019-v1/240000/DAD09424-4FFD-5145-B6BD-107FD5B24F1E.root
p2
a.