(lp0
Vroot://cms-xrdr.private.lo:2094//xrd/store/data/Run2016H/SingleElectron/NANOAOD/Nano25Oct2019-v1/30000/CEE28C04-8B52-954C-88AF-65280B6ED33B.root
p1
aVroot://cms-xrdr.private.lo:2094//xrd/store/data/Run2016H/SingleElectron/NANOAOD/Nano25Oct2019-v1/30000/CF3154FE-BA6F-DE47-8D37-77A9BDAC6410.root
p2
a.