(lp0
Vroot://cms-xrdr.private.lo:2094//xrd/store/data/Run2016G/SingleMuon/NANOAOD/Nano25Oct2019-v1/40000/99741DBA-0F81-E84F-9D98-6E86105FE99A.root
p1
aVroot://cms-xrdr.private.lo:2094//xrd/store/data/Run2016G/SingleMuon/NANOAOD/Nano25Oct2019-v1/40000/9D8EE183-A48A-BB47-ACFF-A06E0281400A.root
p2
a.