(lp0
Vroot://cms-xrdr.private.lo:2094//xrd/store/data/Run2016C/SingleMuon/NANOAOD/Nano25Oct2019-v1/40000/13016C0A-F1C4-FF41-B665-D52DA7BFA822.root
p1
aVroot://cms-xrdr.private.lo:2094//xrd/store/data/Run2016C/SingleMuon/NANOAOD/Nano25Oct2019-v1/40000/14B43C39-0C35-7F42-8599-2CF8D0AE806B.root
p2
a.