(lp0
Vroot://cms-xrdr.private.lo:2094//xrd/store/data/Run2016H/SingleMuon/NANOAOD/Nano25Oct2019-v1/60000/9BC5FCE9-6FB5-6845-A8F5-E77CE308DE7A.root
p1
aVroot://cms-xrdr.private.lo:2094//xrd/store/data/Run2016H/SingleMuon/NANOAOD/Nano25Oct2019-v1/60000/A246AA98-21A7-834B-B7EB-473BB0D47296.root
p2
a.