(lp0
Vroot://cms-xrdr.private.lo:2094//xrd/store/data/Run2016C/SingleElectron/NANOAOD/Nano25Oct2019-v1/20000/6690272F-8615-8F42-BFD2-10DD5E723E78.root
p1
aVroot://cms-xrdr.private.lo:2094//xrd/store/data/Run2016C/SingleElectron/NANOAOD/Nano25Oct2019-v1/20000/691D3CD8-2F59-9E4B-AC11-C6AAEA43D045.root
p2
a.