(lp0
Vroot://cms-xrdr.private.lo:2094//xrd/store/data/Run2016D/SingleMuon/NANOAOD/Nano25Oct2019-v1/20000/616EBDD9-D4EF-5746-8A5E-BC2F919F9C20.root
p1
aVroot://cms-xrdr.private.lo:2094//xrd/store/data/Run2016D/SingleMuon/NANOAOD/Nano25Oct2019-v1/20000/6288813D-BE6B-794B-BF7A-F92B0F308A39.root
p2
a.