(lp0
Vroot://cms-xrdr.private.lo:2094//xrd/store/data/Run2016F/SingleMuon/NANOAOD/Nano25Oct2019-v1/30000/4A9406ED-1184-4E45-9012-A82F5C9C210B.root
p1
aVroot://cms-xrdr.private.lo:2094//xrd/store/data/Run2016F/SingleMuon/NANOAOD/Nano25Oct2019-v1/30000/4AFBC15C-3F02-2547-8BA3-A0A4EE2727D0.root
p2
a.