(lp0
Vroot://cms-xrdr.private.lo:2094//xrd/store/data/Run2016H/DoubleMuon/NANOAOD/Nano25Oct2019-v1/40000/7C6E5D58-F206-9548-8A8F-BABC37A093F0.root
p1
aVroot://cms-xrdr.private.lo:2094//xrd/store/data/Run2016H/DoubleMuon/NANOAOD/Nano25Oct2019-v1/40000/82DA41A6-9960-1149-AC54-2EDCA9869113.root
p2
a.