(lp0
Vroot://cms-xrdr.private.lo:2094//xrd/store/data/Run2016H/SingleMuon/NANOAOD/Nano25Oct2019-v1/60000/5197835D-7D00-6847-B52F-46C12EDBF2BF.root
p1
aVroot://cms-xrdr.private.lo:2094//xrd/store/data/Run2016H/SingleMuon/NANOAOD/Nano25Oct2019-v1/60000/54C8EAA0-88D9-A34C-9E01-BCB1652F946F.root
p2
a.