(lp0
Vroot://cms-xrdr.private.lo:2094//xrd/store/data/Run2016D/SingleElectron/NANOAOD/Nano25Oct2019-v1/230000/13C8E4E6-832B-D246-AECA-DA82C57C33FB.root
p1
aVroot://cms-xrdr.private.lo:2094//xrd/store/data/Run2016D/SingleElectron/NANOAOD/Nano25Oct2019-v1/230000/1435B4DB-7728-A340-8C9C-BC62D3CF8B9E.root
p2
a.