(lp0
Vroot://cms-xrdr.private.lo:2094//xrd/store/data/Run2016E/SingleMuon/NANOAOD/Nano25Oct2019-v1/230000/BA4E9896-96EB-0442-998C-903F3DEEDE81.root
p1
aVroot://cms-xrdr.private.lo:2094//xrd/store/data/Run2016E/SingleMuon/NANOAOD/Nano25Oct2019-v1/230000/BCAAC058-3A84-5F43-92EA-A90DF63A7B15.root
p2
a.