(lp0
Vroot://cms-xrdr.private.lo:2094//xrd/store/data/Run2016D/SingleMuon/NANOAOD/Nano25Oct2019-v1/240000/0BF2490A-6915-2244-86BC-9E38903DFA0F.root
p1
aVroot://cms-xrdr.private.lo:2094//xrd/store/data/Run2016D/SingleMuon/NANOAOD/Nano25Oct2019-v1/240000/161F9451-D810-0D4F-B846-6E9AAD3C0A2A.root
p2
a.