(lp0
Vroot://cms-xrdr.private.lo:2094//xrd/store/data/Run2016G/SingleElectron/NANOAOD/Nano25Oct2019-v1/20000/15039A7C-FF4A-074A-9D40-A61A20A9D771.root
p1
aVroot://cms-xrdr.private.lo:2094//xrd/store/data/Run2016G/SingleElectron/NANOAOD/Nano25Oct2019-v1/20000/1C04F37E-6849-1D4C-B1F7-F5EF80927085.root
p2
a.