(lp0
Vroot://cms-xrdr.private.lo:2094//xrd/store/data/Run2016F/SingleMuon/NANOAOD/Nano25Oct2019-v1/30000/0F8D5CD0-82E6-6442-9AAA-1AEF6CD72705.root
p1
aVroot://cms-xrdr.private.lo:2094//xrd/store/data/Run2016F/SingleMuon/NANOAOD/Nano25Oct2019-v1/30000/1A34B918-1CD3-6343-BF42-84CE9814E4E7.root
p2
a.