(lp0
Vroot://cms-xrdr.private.lo:2094//xrd/store/data/Run2016G/SingleMuon/NANOAOD/Nano25Oct2019-v1/40000/D04339CF-3BA0-7349-8B6E-797977656AF1.root
p1
aVroot://cms-xrdr.private.lo:2094//xrd/store/data/Run2016G/SingleMuon/NANOAOD/Nano25Oct2019-v1/40000/D27DFFF4-6C14-E24C-B8EA-41D8FEA6ABD5.root
p2
a.