(lp0
Vroot://cms-xrdr.private.lo:2094//xrd/store/data/Run2016G/SingleElectron/NANOAOD/Nano25Oct2019-v1/20000/FAF563C9-EA25-A94B-BE43-6A2DDA387A89.root
p1
aVroot://cms-xrdr.private.lo:2094//xrd/store/data/Run2016G/SingleElectron/NANOAOD/Nano25Oct2019-v1/20000/FD4EEA9D-E280-0147-BB7E-CB21E684B915.root
p2
a.