(lp0
Vroot://cms-xrdr.private.lo:2094//xrd/store/data/Run2016E/SingleElectron/NANOAOD/Nano25Oct2019-v1/30000/8266BBFC-9C10-8849-BBD9-F26A2A5A04AF.root
p1
aVroot://cms-xrdr.private.lo:2094//xrd/store/data/Run2016E/SingleElectron/NANOAOD/Nano25Oct2019-v1/30000/87C67D5F-33A6-6946-81F7-139CF413EE5B.root
p2
a.