(lp0
Vroot://cms-xrdr.private.lo:2094//xrd/store/data/Run2016E/SingleElectron/NANOAOD/Nano25Oct2019-v1/30000/10381F92-16CB-0047-92FE-FE920B2FABA9.root
p1
aVroot://cms-xrdr.private.lo:2094//xrd/store/data/Run2016E/SingleElectron/NANOAOD/Nano25Oct2019-v1/30000/14980F46-B925-F947-9451-2190D348B2A1.root
p2
a.