(lp0
Vroot://cms-xrdr.private.lo:2094//xrd/store/data/Run2016H/SingleMuon/NANOAOD/Nano25Oct2019-v1/60000/DFCD8E8F-4B38-994E-8101-DF25955C6B6D.root
p1
aVroot://cms-xrdr.private.lo:2094//xrd/store/data/Run2016H/SingleMuon/NANOAOD/Nano25Oct2019-v1/60000/E25701D8-7FB5-4F4A-ACEE-66593ADEF852.root
p2
a.