(lp0
Vroot://cms-xrdr.private.lo:2094//xrd/store/data/Run2016F/SingleMuon/NANOAOD/Nano25Oct2019-v1/30000/7F4BE80C-B896-8045-8318-4BE6BA7C5DBF.root
p1
aVroot://cms-xrdr.private.lo:2094//xrd/store/data/Run2016F/SingleMuon/NANOAOD/Nano25Oct2019-v1/30000/7F9EE608-EFD1-C94D-94FC-014DCCA5BA72.root
p2
a.