(lp0
Vroot://cms-xrdr.private.lo:2094//xrd/store/data/Run2016H/SingleMuon/NANOAOD/Nano25Oct2019-v1/60000/78E765F0-767B-A142-845D-DD96E7C3DF74.root
p1
aVroot://cms-xrdr.private.lo:2094//xrd/store/data/Run2016H/SingleMuon/NANOAOD/Nano25Oct2019-v1/60000/7975378D-FD97-AA4D-9CE7-21BCF3C87D91.root
p2
a.