(lp0
Vroot://cms-xrdr.private.lo:2094//xrd/store/data/Run2016B_ver2/DoubleMuon/NANOAOD/Nano25Oct2019_ver2-v1/40000/DF8ADCA6-FF2C-EA4A-AA52-8EA4AF784845.root
p1
aVroot://cms-xrdr.private.lo:2094//xrd/store/data/Run2016B_ver2/DoubleMuon/NANOAOD/Nano25Oct2019_ver2-v1/40000/E4ED46B4-55E3-7741-87B0-A78972FC937D.root
p2
a.