(lp0
Vroot://cms-xrdr.private.lo:2094//xrd/store/data/Run2016E/DoubleMuon/NANOAOD/Nano25Oct2019-v1/230000/0C0C21C9-17F5-1041-9A22-F1BEBEA5E4CB.root
p1
aVroot://cms-xrdr.private.lo:2094//xrd/store/data/Run2016E/DoubleMuon/NANOAOD/Nano25Oct2019-v1/230000/16540E62-5E38-524E-BD14-403462C1ADE5.root
p2
a.