(lp0
Vroot://cms-xrdr.private.lo:2094//xrd/store/data/Run2016G/SingleElectron/NANOAOD/Nano25Oct2019-v1/20000/B17F3D75-567A-5A48-8D9F-2397F47BC6E1.root
p1
aVroot://cms-xrdr.private.lo:2094//xrd/store/data/Run2016G/SingleElectron/NANOAOD/Nano25Oct2019-v1/20000/B3F2BD43-49E8-0449-B794-2E2B538C848D.root
p2
a.