(lp0
Vroot://cms-xrdr.private.lo:2094//xrd/store/data/Run2016G/SingleElectron/NANOAOD/Nano25Oct2019-v1/20000/F61777A8-E8CC-6245-B273-8B9035F53F18.root
p1
aVroot://cms-xrdr.private.lo:2094//xrd/store/data/Run2016G/SingleElectron/NANOAOD/Nano25Oct2019-v1/20000/F7EDA119-AC2E-BB47-B766-D0F47EF42E35.root
p2
a.