(lp0
Vroot://cms-xrdr.private.lo:2094//xrd/store/data/Run2016D/DoubleMuon/NANOAOD/Nano25Oct2019-v1/30000/CB000AFD-9888-C745-84B1-C20EFD8D1316.root
p1
aVroot://cms-xrdr.private.lo:2094//xrd/store/data/Run2016D/DoubleMuon/NANOAOD/Nano25Oct2019-v1/30000/D7219973-DCA6-7349-8A30-71FFFC721B3A.root
p2
a.