(lp0
Vroot://cms-xrdr.private.lo:2094//xrd/store/data/Run2016H/SingleElectron/NANOAOD/Nano25Oct2019-v1/30000/07C858C9-F3FC-FE46-9B42-8AF43B2DBD0D.root
p1
aVroot://cms-xrdr.private.lo:2094//xrd/store/data/Run2016H/SingleElectron/NANOAOD/Nano25Oct2019-v1/30000/0A8BB50C-FD0B-C541-8B9F-9DE4603D215A.root
p2
a.