(lp0
Vroot://cms-xrdr.private.lo:2094//xrd/store/data/Run2016C/DoubleMuon/NANOAOD/Nano25Oct2019-v1/40000/758AC6A8-30CE-E84E-A53B-9C98F21BBAC6.root
p1
aVroot://cms-xrdr.private.lo:2094//xrd/store/data/Run2016C/DoubleMuon/NANOAOD/Nano25Oct2019-v1/40000/8821CFC3-55CD-2C44-A82B-4FA645094097.root
p2
a.