(lp0
Vroot://cms-xrdr.private.lo:2094//xrd/store/data/Run2016F/DoubleMuon/NANOAOD/Nano25Oct2019-v1/60000/06219BE2-B4F3-9446-9995-F3147E80741D.root
p1
aVroot://cms-xrdr.private.lo:2094//xrd/store/data/Run2016F/DoubleMuon/NANOAOD/Nano25Oct2019-v1/60000/18276812-3F62-B544-8B59-7524B6E4CF0F.root
p2
a.