(lp0
Vroot://cms-xrdr.private.lo:2094//xrd/store/data/Run2016C/SingleElectron/NANOAOD/Nano25Oct2019-v1/20000/7B02F2CA-1D61-054E-AFE6-17A520F9136D.root
p1
aVroot://cms-xrdr.private.lo:2094//xrd/store/data/Run2016C/SingleElectron/NANOAOD/Nano25Oct2019-v1/20000/869D9F2A-F286-2E44-A030-F9FEB8C87B68.root
p2
a.