(lp0
Vroot://cms-xrdr.private.lo:2094//xrd/store/data/Run2016C/SingleElectron/NANOAOD/Nano25Oct2019-v1/20000/454ED9BB-B016-5B45-B87E-73FB1A094636.root
p1
aVroot://cms-xrdr.private.lo:2094//xrd/store/data/Run2016C/SingleElectron/NANOAOD/Nano25Oct2019-v1/20000/46C9EEBB-8E52-6B4B-94D1-EAD36B460024.root
p2
a.