(lp0
Vroot://cms-xrdr.private.lo:2094//xrd/store/data/Run2016E/SingleMuon/NANOAOD/Nano25Oct2019-v1/230000/DA05E3F5-26E8-6342-84E0-5E143D5301AF.root
p1
aVroot://cms-xrdr.private.lo:2094//xrd/store/data/Run2016E/SingleMuon/NANOAOD/Nano25Oct2019-v1/230000/DAE04AA3-4906-2340-B175-D71A9F24DA8E.root
p2
a.