(lp0
Vroot://cms-xrdr.private.lo:2094//xrd/store/data/Run2016C/SingleMuon/NANOAOD/Nano25Oct2019-v1/40000/9C8CBBAB-6E5A-1E49-BA95-5A858769BD99.root
p1
aVroot://cms-xrdr.private.lo:2094//xrd/store/data/Run2016C/SingleMuon/NANOAOD/Nano25Oct2019-v1/40000/ADE294FD-D468-EE40-9BAF-5129F05942A1.root
p2
a.