(lp0
Vroot://cms-xrdr.private.lo:2094//xrd/store/data/Run2016E/SingleElectron/NANOAOD/Nano25Oct2019-v1/30000/611DD194-5F97-A74B-B613-9022B2A1CE66.root
p1
aVroot://cms-xrdr.private.lo:2094//xrd/store/data/Run2016E/SingleElectron/NANOAOD/Nano25Oct2019-v1/30000/631BDB29-E01D-904B-BBAA-4DD6BE1BEC55.root
p2
a.