(lp0
Vroot://cms-xrdr.private.lo:2094//xrd/store/data/Run2016E/SingleMuon/NANOAOD/Nano25Oct2019-v1/230000/787978B3-39A7-E34C-8C6C-8D72FC14FDAD.root
p1
aVroot://cms-xrdr.private.lo:2094//xrd/store/data/Run2016E/SingleMuon/NANOAOD/Nano25Oct2019-v1/230000/8017DED2-8F8F-7E40-858C-9B7B5DDA655D.root
p2
a.