(lp0
Vroot://cms-xrdr.private.lo:2094//xrd/store/data/Run2016G/SingleElectron/NANOAOD/Nano25Oct2019-v1/20000/9191588E-7975-E646-BBC0-4B90A868AF4C.root
p1
aVroot://cms-xrdr.private.lo:2094//xrd/store/data/Run2016G/SingleElectron/NANOAOD/Nano25Oct2019-v1/20000/92A35E2C-592D-F240-A1E4-E7FAC83FF8B7.root
p2
a.