(lp0
Vroot://cms-xrdr.private.lo:2094//xrd/store/data/Run2016G/SingleMuon/NANOAOD/Nano25Oct2019-v1/40000/D54655E7-6E2B-294E-A7D6-E33D43385D73.root
p1
aVroot://cms-xrdr.private.lo:2094//xrd/store/data/Run2016G/SingleMuon/NANOAOD/Nano25Oct2019-v1/40000/D5A96C80-C435-3B4F-9652-EF271B33C4B3.root
p2
a.