(lp0
Vroot://cms-xrdr.private.lo:2094//xrd/store/data/Run2016G/SingleMuon/NANOAOD/Nano25Oct2019-v1/40000/631BB98A-3E56-0649-994A-83F089F990C8.root
p1
aVroot://cms-xrdr.private.lo:2094//xrd/store/data/Run2016G/SingleMuon/NANOAOD/Nano25Oct2019-v1/40000/6DC057D6-49DC-164B-9455-F3830C4DFA42.root
p2
a.