(lp0
Vroot://cms-xrdr.private.lo:2094//xrd/store/data/Run2016G/SingleElectron/NANOAOD/Nano25Oct2019-v1/20000/DE7B55BC-57F2-2945-9272-EF45D0686673.root
p1
aVroot://cms-xrdr.private.lo:2094//xrd/store/data/Run2016G/SingleElectron/NANOAOD/Nano25Oct2019-v1/20000/DED1B654-9481-B540-BEDB-54B2551861B0.root
p2
a.