(lp0
Vroot://cms-xrdr.private.lo:2094//xrd/store/data/Run2016G/SingleElectron/NANOAOD/Nano25Oct2019-v1/20000/E963A6FD-3D28-344F-9CA9-E9A3EAD08CC1.root
p1
aVroot://cms-xrdr.private.lo:2094//xrd/store/data/Run2016G/SingleElectron/NANOAOD/Nano25Oct2019-v1/20000/F585CE93-D198-1141-8F65-C0871800E68B.root
p2
a.