(lp0
Vroot://cms-xrdr.private.lo:2094//xrd/store/data/Run2016G/SingleElectron/NANOAOD/Nano25Oct2019-v1/20000/52F94E91-4F2F-144C-BE53-9AE2DC74EFA1.root
p1
aVroot://cms-xrdr.private.lo:2094//xrd/store/data/Run2016G/SingleElectron/NANOAOD/Nano25Oct2019-v1/20000/606DA958-4862-EA49-A0D0-403633D6D2B8.root
p2
a.