(lp0
Vroot://cms-xrdr.private.lo:2094//xrd/store/data/Run2016G/SingleMuon/NANOAOD/Nano25Oct2019-v1/40000/58FE57CB-9B21-064E-A6B2-D0E14156AF4A.root
p1
aVroot://cms-xrdr.private.lo:2094//xrd/store/data/Run2016G/SingleMuon/NANOAOD/Nano25Oct2019-v1/40000/5C136D7A-58FF-0D4F-8F5A-60677368B339.root
p2
a.