(lp0
Vroot://cms-xrdr.private.lo:2094//xrd/store/data/Run2016C/SingleElectron/NANOAOD/Nano25Oct2019-v1/20000/8B7AC813-AC25-4245-BC8D-DD3E636AD712.root
p1
aVroot://cms-xrdr.private.lo:2094//xrd/store/data/Run2016C/SingleElectron/NANOAOD/Nano25Oct2019-v1/20000/9BDEA1AA-F8B9-4948-9394-0CD95B7A4704.root
p2
a.