(lp0
Vroot://cms-xrdr.private.lo:2094//xrd/store/data/Run2016G/SingleMuon/NANOAOD/Nano25Oct2019-v1/40000/C5C27AF5-D36A-0C41-86E6-BC970D45BB21.root
p1
aVroot://cms-xrdr.private.lo:2094//xrd/store/data/Run2016G/SingleMuon/NANOAOD/Nano25Oct2019-v1/40000/C6FD16A3-494C-0F4F-855D-33EA8E31956E.root
p2
a.