(lp0
Vroot://cms-xrdr.private.lo:2094//xrd/store/data/Run2016G/SingleMuon/NANOAOD/Nano25Oct2019-v1/40000/A9350817-B6F7-0D48-944C-7FBDBAF321D2.root
p1
aVroot://cms-xrdr.private.lo:2094//xrd/store/data/Run2016G/SingleMuon/NANOAOD/Nano25Oct2019-v1/40000/AAC2ADB1-33D0-2A46-BFE3-8750128B086A.root
p2
a.