(lp0
Vroot://cms-xrdr.private.lo:2094//xrd/store/data/Run2016D/SingleMuon/NANOAOD/Nano25Oct2019-v1/20000/8CB1F915-72B5-114F-8036-1CE470F2C334.root
p1
aVroot://cms-xrdr.private.lo:2094//xrd/store/data/Run2016D/SingleMuon/NANOAOD/Nano25Oct2019-v1/20000/997B2A45-CE1D-1242-868E-BA0BC8ED5EAC.root
p2
a.