(lp0
Vroot://cms-xrdr.private.lo:2094//xrd/store/data/Run2016E/SingleElectron/NANOAOD/Nano25Oct2019-v1/30000/C62F4BAC-9659-7749-A641-7047C81568BA.root
p1
aVroot://cms-xrdr.private.lo:2094//xrd/store/data/Run2016E/SingleElectron/NANOAOD/Nano25Oct2019-v1/30000/D6C5F681-2E69-AC44-9E9F-8D94AB5FA290.root
p2
a.