(lp0
Vroot://cms-xrdr.private.lo:2094//xrd/store/data/Run2016E/SingleMuon/NANOAOD/Nano25Oct2019-v1/230000/04EC51D8-CA3D-6143-98E7-3D31EDEDF638.root
p1
aVroot://cms-xrdr.private.lo:2094//xrd/store/data/Run2016E/SingleMuon/NANOAOD/Nano25Oct2019-v1/230000/0689A6F2-AD4E-C848-B767-6E14828B8F54.root
p2
a.