(lp0
Vroot://cms-xrdr.private.lo:2094//xrd/store/data/Run2016B_ver2/SingleElectron/NANOAOD/Nano25Oct2019_ver2-v1/240000/13547AD5-6DDA-8649-BF06-8668AF1B3068.root
p1
aVroot://cms-xrdr.private.lo:2094//xrd/store/data/Run2016B_ver2/SingleElectron/NANOAOD/Nano25Oct2019_ver2-v1/240000/13C18320-0D0A-6E4B-BC0C-9EBAC28A61D0.root
p2
a.