(lp0
Vroot://cms-xrdr.private.lo:2094//xrd/store/data/Run2016E/SingleMuon/NANOAOD/Nano25Oct2019-v1/230000/DF3D5344-E2BD-FC42-B940-A95EAA84790B.root
p1
aVroot://cms-xrdr.private.lo:2094//xrd/store/data/Run2016E/SingleMuon/NANOAOD/Nano25Oct2019-v1/230000/E3758C88-904D-3E40-AF3A-15B3A94BCF7A.root
p2
a.