(lp0
Vroot://cms-xrdr.private.lo:2094//xrd/store/data/Run2016H/SingleMuon/NANOAOD/Nano25Oct2019-v1/60000/A7E9147D-D66A-D848-8F1C-187B50C2982B.root
p1
aVroot://cms-xrdr.private.lo:2094//xrd/store/data/Run2016H/SingleMuon/NANOAOD/Nano25Oct2019-v1/60000/AB5C1999-DB31-174C-AEB7-DF5F7BFF371E.root
p2
a.