(lp0
Vroot://cms-xrdr.private.lo:2094//xrd/store/data/Run2016G/SingleElectron/NANOAOD/Nano25Oct2019-v1/20000/25A5ADDD-4444-D445-8904-717EE6B5A7C8.root
p1
aVroot://cms-xrdr.private.lo:2094//xrd/store/data/Run2016G/SingleElectron/NANOAOD/Nano25Oct2019-v1/20000/2985ED1E-EBFD-C444-99AE-660387A6D3B7.root
p2
a.