(lp0
Vroot://cms-xrdr.private.lo:2094//xrd/store/data/Run2016G/SingleMuon/NANOAOD/Nano25Oct2019-v1/40000/C76C73F9-C9DC-4E4E-AE33-E7D3E5A70F9D.root
p1
aVroot://cms-xrdr.private.lo:2094//xrd/store/data/Run2016G/SingleMuon/NANOAOD/Nano25Oct2019-v1/40000/CE6B09F6-6CFF-984C-8657-9BD4DFCC5909.root
p2
a.