(lp0
Vroot://cms-xrdr.private.lo:2094//xrd/store/data/Run2016D/SingleElectron/NANOAOD/Nano25Oct2019-v1/230000/E8A3A3E5-D1D2-CD4A-86D2-0513E40C1045.root
p1
aVroot://cms-xrdr.private.lo:2094//xrd/store/data/Run2016D/SingleElectron/NANOAOD/Nano25Oct2019-v1/230000/EAF93F15-5EC4-1B43-899C-7F78C86EEBBF.root
p2
a.