(lp0
Vroot://cms-xrdr.private.lo:2094//xrd/store/data/Run2016C/SingleElectron/NANOAOD/Nano25Oct2019-v1/20000/DB386EB3-83FA-EF42-88B8-5DC8ADD1E7AD.root
p1
aVroot://cms-xrdr.private.lo:2094//xrd/store/data/Run2016C/SingleElectron/NANOAOD/Nano25Oct2019-v1/20000/E3FEB560-ABCA-044D-8E1D-DDF8D516208D.root
p2
a.