(lp0
Vroot://cms-xrdr.private.lo:2094//xrd/store/data/Run2016D/SingleElectron/NANOAOD/Nano25Oct2019-v1/230000/DA067CEF-A186-B14D-896F-619D4523A07B.root
p1
aVroot://cms-xrdr.private.lo:2094//xrd/store/data/Run2016D/SingleElectron/NANOAOD/Nano25Oct2019-v1/230000/DD29C4BD-ABAA-9948-A6C4-F45263984B0B.root
p2
a.