(lp0
Vroot://cms-xrdr.private.lo:2094//xrd/store/data/Run2016D/SingleMuon/NANOAOD/Nano25Oct2019-v1/20000/6FC68CD5-CA7E-7B4E-8640-D70663120360.root
p1
aVroot://cms-xrdr.private.lo:2094//xrd/store/data/Run2016D/SingleMuon/NANOAOD/Nano25Oct2019-v1/20000/7138F86A-05DE-144D-9F73-67BCB8FB9C33.root
p2
a.