(lp0
Vroot://cms-xrdr.private.lo:2094//xrd/store/data/Run2016E/SingleElectron/NANOAOD/Nano25Oct2019-v1/30000/271F9ABC-54B3-C643-8D1D-149CBAFC0691.root
p1
aVroot://cms-xrdr.private.lo:2094//xrd/store/data/Run2016E/SingleElectron/NANOAOD/Nano25Oct2019-v1/30000/2D8A4EA6-B1A0-3245-B6E2-B7A60A01F7E1.root
p2
a.