(lp0
Vroot://cms-xrdr.private.lo:2094//xrd/store/data/Run2016G/SingleMuon/NANOAOD/Nano25Oct2019-v1/40000/0F3D222B-CCE6-0647-B942-3F67BD2048F3.root
p1
aVroot://cms-xrdr.private.lo:2094//xrd/store/data/Run2016G/SingleMuon/NANOAOD/Nano25Oct2019-v1/40000/1060EA9D-99D1-D34D-9EF5-8B685103B397.root
p2
a.