(lp0
Vroot://cms-xrdr.private.lo:2094//xrd/store/data/Run2016F/SingleElectron/NANOAOD/Nano25Oct2019-v1/240000/0DE98C8C-D765-AC4E-9326-FFCCAF3469AB.root
p1
aVroot://cms-xrdr.private.lo:2094//xrd/store/data/Run2016F/SingleElectron/NANOAOD/Nano25Oct2019-v1/240000/0EA8A731-1B90-BF4E-865D-30F1935A76DF.root
p2
a.