(lp0
Vroot://cms-xrdr.private.lo:2094//xrd/store/data/Run2016C/SingleElectron/NANOAOD/Nano25Oct2019-v1/20000/70FC50D9-4917-4445-972B-96A4E807E425.root
p1
aVroot://cms-xrdr.private.lo:2094//xrd/store/data/Run2016C/SingleElectron/NANOAOD/Nano25Oct2019-v1/20000/76844EF4-2F6E-DE46-BFB8-CC88EE483737.root
p2
a.