(lp0
Vroot://cms-xrdr.private.lo:2094//xrd/store/data/Run2016D/SingleElectron/NANOAOD/Nano25Oct2019-v1/230000/BC7F089A-9017-9D41-B6E3-53746CBEC991.root
p1
aVroot://cms-xrdr.private.lo:2094//xrd/store/data/Run2016D/SingleElectron/NANOAOD/Nano25Oct2019-v1/230000/BEBD6393-491B-984B-9B10-BAA8E30B5FB5.root
p2
a.