(lp0
Vroot://cms-xrdr.private.lo:2094//xrd/store/data/Run2016E/SingleMuon/NANOAOD/Nano25Oct2019-v1/230000/9D93CFBF-F89A-E04B-8046-A24DCE29ABF1.root
p1
aVroot://cms-xrdr.private.lo:2094//xrd/store/data/Run2016E/SingleMuon/NANOAOD/Nano25Oct2019-v1/230000/9E6D784E-CC84-5443-9660-C8659FF7F6EE.root
p2
a.