(lp0
Vroot://cms-xrdr.private.lo:2094//xrd/store/data/Run2016F/SingleMuon/NANOAOD/Nano25Oct2019-v1/30000/93E4F058-68D2-A54D-B027-F9227E1A443B.root
p1
aVroot://cms-xrdr.private.lo:2094//xrd/store/data/Run2016F/SingleMuon/NANOAOD/Nano25Oct2019-v1/30000/A1E207E0-3A2D-F24F-99C3-A7A86EE62696.root
p2
a.