(lp0
Vroot://cms-xrdr.private.lo:2094//xrd/store/data/Run2016E/SingleMuon/NANOAOD/Nano25Oct2019-v1/20000/29A3683B-9004-5B49-B26A-D17E021E606F.root
p1
aVroot://cms-xrdr.private.lo:2094//xrd/store/data/Run2016E/SingleMuon/NANOAOD/Nano25Oct2019-v1/20000/3BFD152F-D9BC-4540-810E-92939DD69EA4.root
p2
a.