(lp0
Vroot://cms-xrdr.private.lo:2094//xrd/store/data/Run2016G/SingleElectron/NANOAOD/Nano25Oct2019-v1/20000/E0B8DD00-2233-E54E-A5C5-AA75731B4801.root
p1
aVroot://cms-xrdr.private.lo:2094//xrd/store/data/Run2016G/SingleElectron/NANOAOD/Nano25Oct2019-v1/20000/E5FC13E1-AC24-9A48-AF1A-9A8349CCDEA8.root
p2
a.