(lp0
Vroot://cms-xrdr.private.lo:2094//xrd/store/data/Run2016D/SingleMuon/NANOAOD/Nano25Oct2019-v1/20000/788F42E9-CCE5-844D-8564-934F1FD85EB7.root
p1
aVroot://cms-xrdr.private.lo:2094//xrd/store/data/Run2016D/SingleMuon/NANOAOD/Nano25Oct2019-v1/20000/797D97E8-CD0D-6C4F-9A09-9421C3472153.root
p2
a.