(lp0
Vroot://cms-xrdr.private.lo:2094//xrd/store/data/Run2016G/SingleElectron/NANOAOD/Nano25Oct2019-v1/20000/747C96B2-3DBA-DB43-BE40-5111DCBAEBFB.root
p1
aVroot://cms-xrdr.private.lo:2094//xrd/store/data/Run2016G/SingleElectron/NANOAOD/Nano25Oct2019-v1/20000/769DFF4D-2ADD-D14D-8F47-F574AE19E3C9.root
p2
a.