(lp0
Vroot://cms-xrdr.private.lo:2094//xrd/store/data/Run2016E/SingleElectron/NANOAOD/Nano25Oct2019-v1/30000/BBEBB1DA-E187-7B4D-91CB-7B9B2F0E3C20.root
p1
aVroot://cms-xrdr.private.lo:2094//xrd/store/data/Run2016E/SingleElectron/NANOAOD/Nano25Oct2019-v1/30000/C0CFECAA-6553-244C-B903-5C58ACFA0712.root
p2
a.