(lp0
Vroot://cms-xrdr.private.lo:2094//xrd/store/data/Run2016D/SingleMuon/NANOAOD/Nano25Oct2019-v1/20000/3D5E46E0-1A64-4449-8DE7-3DDBB2494ECB.root
p1
aVroot://cms-xrdr.private.lo:2094//xrd/store/data/Run2016D/SingleMuon/NANOAOD/Nano25Oct2019-v1/20000/40D114CC-5EE5-8646-AF75-386B12463E24.root
p2
a.