(lp0
Vroot://cms-xrdr.private.lo:2094//xrd/store/data/Run2016C/SingleMuon/NANOAOD/Nano25Oct2019-v1/40000/971DDE80-FBC0-134B-9AA5-244B149D9336.root
p1
aVroot://cms-xrdr.private.lo:2094//xrd/store/data/Run2016C/SingleMuon/NANOAOD/Nano25Oct2019-v1/40000/9AF0D61A-7256-5249-BC2B-CE87A5E13512.root
p2
a.