(lp0
Vroot://cms-xrdr.private.lo:2094//xrd/store/data/Run2016H/SingleElectron/NANOAOD/Nano25Oct2019-v1/30000/BD8DF699-85AF-C14C-B09B-8A9CA48B444D.root
p1
aVroot://cms-xrdr.private.lo:2094//xrd/store/data/Run2016H/SingleElectron/NANOAOD/Nano25Oct2019-v1/30000/BEB1A7E9-457F-7346-8C19-2DB798263E33.root
p2
a.