(lp0
Vroot://cms-xrdr.private.lo:2094//xrd/store/data/Run2016D/SingleMuon/NANOAOD/Nano25Oct2019-v1/240000/8FB1CE08-C554-5C41-9577-F92F8FAA07FE.root
p1
aVroot://cms-xrdr.private.lo:2094//xrd/store/data/Run2016D/SingleMuon/NANOAOD/Nano25Oct2019-v1/240000/9EDE7493-A23C-9745-9246-8CB267B4EE19.root
p2
a.