(lp0
Vroot://cms-xrdr.private.lo:2094//xrd/store/data/Run2016D/SingleMuon/NANOAOD/Nano25Oct2019-v1/240000/D74EEF4B-FAA6-E643-BEE0-FC46900166A3.root
p1
aVroot://cms-xrdr.private.lo:2094//xrd/store/data/Run2016D/SingleMuon/NANOAOD/Nano25Oct2019-v1/240000/D8D353BF-2B68-6042-90C7-F9336C5674D5.root
p2
a.