(lp0
Vroot://cms-xrdr.private.lo:2094//xrd/store/data/Run2016H/SingleMuon/NANOAOD/Nano25Oct2019-v1/60000/3D211947-57C4-B848-8E6C-692EF9D2C299.root
p1
aVroot://cms-xrdr.private.lo:2094//xrd/store/data/Run2016H/SingleMuon/NANOAOD/Nano25Oct2019-v1/60000/3E3A2907-FA7E-4944-9C0F-BF7322E7DE21.root
p2
a.