(lp0
Vroot://cms-xrdr.private.lo:2094//xrd/store/data/Run2016G/SingleElectron/NANOAOD/Nano25Oct2019-v1/20000/B9D0A6AC-CFF9-C442-ACBE-01C596D23EE9.root
p1
aVroot://cms-xrdr.private.lo:2094//xrd/store/data/Run2016G/SingleElectron/NANOAOD/Nano25Oct2019-v1/20000/C4EFEBEC-ACD9-E14D-9767-8F3D44F382B0.root
p2
a.