(lp0
Vroot://cms-xrdr.private.lo:2094//xrd/store/data/Run2016H/SingleElectron/NANOAOD/Nano25Oct2019-v1/30000/F82E2ECD-48F6-5F4C-8E9C-9481F147EFA6.root
p1
aVroot://cms-xrdr.private.lo:2094//xrd/store/data/Run2016H/SingleElectron/NANOAOD/Nano25Oct2019-v1/30000/FAC71EAA-EE34-CC4C-8D67-0E3DC6F1CCDA.root
p2
a.