(lp0
Vroot://cms-xrdr.private.lo:2094//xrd/store/data/Run2016F/SingleElectron/NANOAOD/Nano25Oct2019-v1/240000/69DB62AA-DE09-174D-BB08-608E669DEBA2.root
p1
aVroot://cms-xrdr.private.lo:2094//xrd/store/data/Run2016F/SingleElectron/NANOAOD/Nano25Oct2019-v1/240000/70EAC9A5-00BD-B34A-BCD1-7680DAFEEDBF.root
p2
a.