(lp0
Vroot://cms-xrdr.private.lo:2094//xrd/store/data/Run2016F/SingleElectron/NANOAOD/Nano25Oct2019-v1/240000/1A4B3747-68D5-3C4B-B3EE-C6A2F297DAF4.root
p1
aVroot://cms-xrdr.private.lo:2094//xrd/store/data/Run2016F/SingleElectron/NANOAOD/Nano25Oct2019-v1/240000/25E2BCFF-5225-FB44-9084-96E3E15C2E73.root
p2
a.