(lp0
Vroot://cms-xrdr.private.lo:2094//xrd/store/data/Run2016G/SingleElectron/NANOAOD/Nano25Oct2019-v1/20000/A6DE4AD2-2B8A-E742-9EAA-783CD44B489A.root
p1
aVroot://cms-xrdr.private.lo:2094//xrd/store/data/Run2016G/SingleElectron/NANOAOD/Nano25Oct2019-v1/20000/A77BDB9A-5698-E441-89FD-C70877337B51.root
p2
a.