(lp0
Vroot://cms-xrdr.private.lo:2094//xrd/store/data/Run2016F/SingleMuon/NANOAOD/Nano25Oct2019-v1/30000/25C950DC-31D7-1445-BEA3-E09DD3F7BEEC.root
p1
aVroot://cms-xrdr.private.lo:2094//xrd/store/data/Run2016F/SingleMuon/NANOAOD/Nano25Oct2019-v1/30000/32241E48-CDB1-FE49-B6C3-97767EBF55F3.root
p2
a.