(lp0
Vroot://cms-xrdr.private.lo:2094//xrd/store/data/Run2016G/SingleMuon/NANOAOD/Nano25Oct2019-v1/40000/3BC9CD32-F90A-164B-BF71-2C3DDAEDCB4B.root
p1
aVroot://cms-xrdr.private.lo:2094//xrd/store/data/Run2016G/SingleMuon/NANOAOD/Nano25Oct2019-v1/40000/41D34337-2409-A348-A8CD-A719A130E0E3.root
p2
a.