(lp0
Vroot://cms-xrdr.private.lo:2094//xrd/store/data/Run2016G/SingleMuon/NANOAOD/Nano25Oct2019-v1/40000/496CEB88-FBFD-7E4B-8928-3689A2B7A3CF.root
p1
aVroot://cms-xrdr.private.lo:2094//xrd/store/data/Run2016G/SingleMuon/NANOAOD/Nano25Oct2019-v1/40000/4B3C5AD2-C81C-D343-8B62-6760499849AE.root
p2
a.