(lp0
Vroot://cms-xrdr.private.lo:2094//xrd/store/data/Run2016C/DoubleMuon/NANOAOD/Nano25Oct2019-v1/40000/AA15B625-7FC2-8248-8995-FAF0D638B1BB.root
p1
aVroot://cms-xrdr.private.lo:2094//xrd/store/data/Run2016C/DoubleMuon/NANOAOD/Nano25Oct2019-v1/40000/CC79E651-7948-5645-8C7E-6A9D230CAD3B.root
p2
a.