(lp0
Vroot://cms-xrdr.private.lo:2094//xrd/store/data/Run2016G/SingleMuon/NANOAOD/Nano25Oct2019-v1/40000/2AFBCF45-4D11-7A43-BEB7-D9EAE9E12AAA.root
p1
aVroot://cms-xrdr.private.lo:2094//xrd/store/data/Run2016G/SingleMuon/NANOAOD/Nano25Oct2019-v1/40000/350BED2A-4249-9945-878E-741D0861CFEC.root
p2
a.