(lp0
Vroot://cms-xrdr.private.lo:2094//xrd/store/data/Run2016H/DoubleMuon/NANOAOD/Nano25Oct2019-v1/40000/8753C889-831B-2A48-AE53-E3EA7910458A.root
p1
aVroot://cms-xrdr.private.lo:2094//xrd/store/data/Run2016H/DoubleMuon/NANOAOD/Nano25Oct2019-v1/40000/9AFC1E2E-FF0F-D44A-B3D4-9149F1ADA929.root
p2
a.