(lp0
Vroot://cms-xrdr.private.lo:2094//xrd/store/data/Run2016F/SingleElectron/NANOAOD/Nano25Oct2019-v1/240000/388414B3-B713-D542-9315-3434E858A075.root
p1
aVroot://cms-xrdr.private.lo:2094//xrd/store/data/Run2016F/SingleElectron/NANOAOD/Nano25Oct2019-v1/240000/3911845C-F164-9546-96FD-9771239A06D6.root
p2
a.