(lp0
Vroot://cms-xrdr.private.lo:2094//xrd/store/data/Run2016H/SingleElectron/NANOAOD/Nano25Oct2019-v1/30000/509FF852-C9AE-F241-8167-9C2D8C7CC9A1.root
p1
aVroot://cms-xrdr.private.lo:2094//xrd/store/data/Run2016H/SingleElectron/NANOAOD/Nano25Oct2019-v1/30000/52115F72-8B78-2F42-98AA-D3003AE24D26.root
p2
a.