(lp0
Vroot://cms-xrdr.private.lo:2094//xrd/store/data/Run2016D/DoubleMuon/NANOAOD/Nano25Oct2019-v1/30000/75C742C3-1B91-3A4A-B0EC-3844A0A4D338.root
p1
aVroot://cms-xrdr.private.lo:2094//xrd/store/data/Run2016D/DoubleMuon/NANOAOD/Nano25Oct2019-v1/30000/8CCBD9BC-A5A3-4541-9493-294658E0BB26.root
p2
a.