(lp0
Vroot://cms-xrdr.private.lo:2094//xrd/store/data/Run2016G/SingleMuon/NANOAOD/Nano25Oct2019-v1/40000/D86AD46C-6EE7-F949-9476-DDE00FFE7270.root
p1
aVroot://cms-xrdr.private.lo:2094//xrd/store/data/Run2016G/SingleMuon/NANOAOD/Nano25Oct2019-v1/40000/DA1453B3-ECD7-B94C-8AFC-97FC6382BEEB.root
p2
a.