(lp0
Vroot://cms-xrdr.private.lo:2094//xrd/store/data/Run2016D/DoubleMuon/NANOAOD/Nano25Oct2019-v1/30000/50ABF507-AB5E-C646-B6BE-F0FA108F23EC.root
p1
aVroot://cms-xrdr.private.lo:2094//xrd/store/data/Run2016D/DoubleMuon/NANOAOD/Nano25Oct2019-v1/30000/609F874F-E33E-2642-839A-6FBEBB225439.root
p2
a.