(lp0
Vroot://cms-xrdr.private.lo:2094//xrd/store/data/Run2016F/SingleMuon/NANOAOD/Nano25Oct2019-v1/30000/4B075D89-5DBB-6C46-B9B4-C73A9AC6BE33.root
p1
aVroot://cms-xrdr.private.lo:2094//xrd/store/data/Run2016F/SingleMuon/NANOAOD/Nano25Oct2019-v1/30000/4F9B31A2-72E3-5D41-8986-D387D1CA5B4A.root
p2
a.