(lp0
Vroot://cms-xrdr.private.lo:2094//xrd/store/data/Run2016G/SingleMuon/NANOAOD/Nano25Oct2019-v1/40000/DF4F2323-1277-D942-B86F-9162AA044BC6.root
p1
aVroot://cms-xrdr.private.lo:2094//xrd/store/data/Run2016G/SingleMuon/NANOAOD/Nano25Oct2019-v1/40000/E0598CF8-C5FC-5C46-A7DA-AFD62BE2E21B.root
p2
a.