(lp0
Vroot://cms-xrdr.private.lo:2094//xrd/store/data/Run2016H/SingleElectron/NANOAOD/Nano25Oct2019-v1/30000/768AF5D6-6287-5541-9FEF-5B13677F60D0.root
p1
aVroot://cms-xrdr.private.lo:2094//xrd/store/data/Run2016H/SingleElectron/NANOAOD/Nano25Oct2019-v1/30000/7739ACF7-E94B-6C48-B8CF-2A6CF760F395.root
p2
a.