(lp0
Vroot://cms-xrdr.private.lo:2094//xrd/store/data/Run2016G/SingleMuon/NANOAOD/Nano25Oct2019-v1/40000/DB445B02-C71F-4047-A951-FB7E7DE1E858.root
p1
aVroot://cms-xrdr.private.lo:2094//xrd/store/data/Run2016G/SingleMuon/NANOAOD/Nano25Oct2019-v1/40000/DB61E7F1-D1A0-5848-B7E9-2ACD20FFF44A.root
p2
a.