(lp0
Vroot://cms-xrdr.private.lo:2094//xrd/store/data/Run2016H/SingleElectron/NANOAOD/Nano25Oct2019-v1/30000/A165E116-8681-C948-9A1E-6C52A3B86802.root
p1
aVroot://cms-xrdr.private.lo:2094//xrd/store/data/Run2016H/SingleElectron/NANOAOD/Nano25Oct2019-v1/30000/A3D79A3A-5B2C-424B-AAA2-B03A2BFDE8B6.root
p2
a.