(lp0
Vroot://cms-xrdr.private.lo:2094//xrd/store/data/Run2016H/SingleMuon/NANOAOD/Nano25Oct2019-v1/60000/098E5677-DA3B-4E41-AC32-ECA0C45EFA03.root
p1
aVroot://cms-xrdr.private.lo:2094//xrd/store/data/Run2016H/SingleMuon/NANOAOD/Nano25Oct2019-v1/60000/0CD74BD6-9883-C749-97E7-723ABD98BE7A.root
p2
a.