(lp0
Vroot://cms-xrdr.private.lo:2094//xrd/store/data/Run2016H/SingleElectron/NANOAOD/Nano25Oct2019-v1/30000/6A6BDBA2-67A7-2643-8534-7D86616B0884.root
p1
aVroot://cms-xrdr.private.lo:2094//xrd/store/data/Run2016H/SingleElectron/NANOAOD/Nano25Oct2019-v1/30000/6C74006D-78EE-E34F-982A-C6215F65F44B.root
p2
a.