(lp0
Vroot://cms-xrdr.private.lo:2094//xrd/store/data/Run2016G/SingleElectron/NANOAOD/Nano25Oct2019-v1/20000/3C6B2D88-C825-2C44-9502-0B67FAC71B98.root
p1
aVroot://cms-xrdr.private.lo:2094//xrd/store/data/Run2016G/SingleElectron/NANOAOD/Nano25Oct2019-v1/20000/3EA3924C-D93B-3742-B8E6-BC5E7ACD84E3.root
p2
a.