(lp0
Vroot://cms-xrdr.private.lo:2094//xrd/store/data/Run2016G/SingleElectron/NANOAOD/Nano25Oct2019-v1/20000/899A48A9-198C-3844-BEB1-DA962C1E25D8.root
p1
aVroot://cms-xrdr.private.lo:2094//xrd/store/data/Run2016G/SingleElectron/NANOAOD/Nano25Oct2019-v1/20000/90AFC05D-B198-5C4A-9E42-321A0D0B18DF.root
p2
a.