(lp0
Vroot://cms-xrdr.private.lo:2094//xrd/store/data/Run2016D/DoubleMuon/NANOAOD/Nano25Oct2019-v1/30000/A10CA5AA-B6E4-7E4A-9E4E-1D74D377D3FF.root
p1
aVroot://cms-xrdr.private.lo:2094//xrd/store/data/Run2016D/DoubleMuon/NANOAOD/Nano25Oct2019-v1/30000/C8023F19-DC9E-3146-8976-8DDCAB797DF5.root
p2
a.