(lp0
Vroot://cms-xrdr.private.lo:2094//xrd/store/data/Run2016F/SingleMuon/NANOAOD/Nano25Oct2019-v1/30000/AA8CC77D-6C45-D445-A76B-F6CEC01ED6C9.root
p1
aVroot://cms-xrdr.private.lo:2094//xrd/store/data/Run2016F/SingleMuon/NANOAOD/Nano25Oct2019-v1/30000/B00F90C6-E9FD-214A-B922-FA1B5FBD379D.root
p2
a.