(lp0
Vroot://cms-xrdr.private.lo:2094//xrd/store/data/Run2016H/SingleElectron/NANOAOD/Nano25Oct2019-v1/30000/D4566E22-71A2-4C4C-B5D7-4A2405120FA8.root
p1
aVroot://cms-xrdr.private.lo:2094//xrd/store/data/Run2016H/SingleElectron/NANOAOD/Nano25Oct2019-v1/30000/DEFFCE16-5EFB-2042-8597-40AEC5527391.root
p2
a.