(lp0
Vroot://cms-xrdr.private.lo:2094//xrd/store/data/Run2016E/SingleMuon/NANOAOD/Nano25Oct2019-v1/230000/29B1BB77-95FD-C141-84EC-5E7E732D8DF0.root
p1
aVroot://cms-xrdr.private.lo:2094//xrd/store/data/Run2016E/SingleMuon/NANOAOD/Nano25Oct2019-v1/230000/2E93ABB2-6C7F-C242-BED7-95F58DFCC595.root
p2
a.