(lp0
Vroot://cms-xrdr.private.lo:2094//xrd/store/data/Run2016G/SingleMuon/NANOAOD/Nano25Oct2019-v1/40000/AEFD97EC-4E32-AB41-B3C6-612F6A42F22F.root
p1
aVroot://cms-xrdr.private.lo:2094//xrd/store/data/Run2016G/SingleMuon/NANOAOD/Nano25Oct2019-v1/40000/B1F3BA88-71AB-C545-A146-89233295E6D3.root
p2
a.