(lp0
Vroot://cms-xrdr.private.lo:2094//xrd/store/data/Run2016D/SingleMuon/NANOAOD/Nano25Oct2019-v1/20000/AFECF68B-0A65-5045-85BC-5FF00A487EE5.root
p1
aVroot://cms-xrdr.private.lo:2094//xrd/store/data/Run2016D/SingleMuon/NANOAOD/Nano25Oct2019-v1/20000/B15A97C5-A872-FD46-9B77-9EB3178A4174.root
p2
a.