(lp0
Vroot://cms-xrdr.private.lo:2094//xrd/store/data/Run2016H/SingleMuon/NANOAOD/Nano25Oct2019-v1/60000/4C337ED3-DBC7-104F-B53C-E54350F69661.root
p1
aVroot://cms-xrdr.private.lo:2094//xrd/store/data/Run2016H/SingleMuon/NANOAOD/Nano25Oct2019-v1/60000/50A22F2B-F9F9-7447-9805-15FAF8EDF5B7.root
p2
a.