(lp0
Vroot://cms-xrdr.private.lo:2094//xrd/store/data/Run2016D/SingleElectron/NANOAOD/Nano25Oct2019-v1/230000/08028111-ECB2-6840-B8D5-8D70AE0A7D9A.root
p1
aVroot://cms-xrdr.private.lo:2094//xrd/store/data/Run2016D/SingleElectron/NANOAOD/Nano25Oct2019-v1/230000/085DE3A3-9EF7-764A-8B37-6A8C06D57164.root
p2
a.