(lp0
Vroot://cms-xrdr.private.lo:2094//xrd/store/data/Run2016H/DoubleMuon/NANOAOD/Nano25Oct2019-v1/40000/6FF6A5A6-DB0B-C64F-B229-012D2969FE93.root
p1
aVroot://cms-xrdr.private.lo:2094//xrd/store/data/Run2016H/DoubleMuon/NANOAOD/Nano25Oct2019-v1/40000/74BA9DDD-DE3F-D94D-A0FA-1F2A403D1789.root
p2
a.