(lp0
Vroot://cms-xrdr.private.lo:2094//xrd/store/data/Run2016E/SingleMuon/NANOAOD/Nano25Oct2019-v1/20000/414D1CDF-6862-9441-B76A-5834A4BCBA5A.root
p1
aVroot://cms-xrdr.private.lo:2094//xrd/store/data/Run2016E/SingleMuon/NANOAOD/Nano25Oct2019-v1/20000/8F99AFE2-E9CF-7845-99C7-A0F55C3EEF8A.root
p2
a.