(lp0
Vroot://cms-xrdr.private.lo:2094//xrd/store/data/Run2016E/SingleElectron/NANOAOD/Nano25Oct2019-v1/30000/3070230A-5AF6-834E-B8C9-4504014E9136.root
p1
aVroot://cms-xrdr.private.lo:2094//xrd/store/data/Run2016E/SingleElectron/NANOAOD/Nano25Oct2019-v1/30000/4BF5255B-98AA-3747-9323-614CAFF5FAEA.root
p2
a.