(lp0
Vroot://cms-xrdr.private.lo:2094//xrd/store/data/Run2016E/DoubleMuon/NANOAOD/Nano25Oct2019-v1/230000/85BFF1CF-2B8E-6E4E-95BB-E001DC9BA8BF.root
p1
aVroot://cms-xrdr.private.lo:2094//xrd/store/data/Run2016E/DoubleMuon/NANOAOD/Nano25Oct2019-v1/230000/C1D79AE5-5047-B749-A23E-85765E41C6C1.root
p2
a.