(lp0
Vroot://cms-xrdr.private.lo:2094//xrd/store/data/Run2016G/SingleElectron/NANOAOD/Nano25Oct2019-v1/20000/AD0BA8F6-9F3D-BB4B-9157-1B493011FFF2.root
p1
aVroot://cms-xrdr.private.lo:2094//xrd/store/data/Run2016G/SingleElectron/NANOAOD/Nano25Oct2019-v1/20000/AFEA02B8-03A3-BB48-AC31-597F9196E43F.root
p2
a.