(lp0
Vroot://cms-xrdr.private.lo:2094//xrd/store/data/Run2016C/SingleElectron/NANOAOD/Nano25Oct2019-v1/20000/E7D2E616-B385-014C-BDD6-5B0E1A13C6FC.root
p1
aVroot://cms-xrdr.private.lo:2094//xrd/store/data/Run2016C/SingleElectron/NANOAOD/Nano25Oct2019-v1/20000/EF265553-7408-8F4E-963F-BFB2643C6567.root
p2
a.