(lp0
Vroot://cms-xrdr.private.lo:2094//xrd/store/data/Run2016H/DoubleMuon/NANOAOD/Nano25Oct2019-v1/40000/A77CEB3A-573B-F041-B4CD-A4FA13E9A945.root
p1
aVroot://cms-xrdr.private.lo:2094//xrd/store/data/Run2016H/DoubleMuon/NANOAOD/Nano25Oct2019-v1/40000/AE13EB97-1F5E-CB47-B7D2-144796998D64.root
p2
a.