(lp0
Vroot://cms-xrdr.private.lo:2094//xrd/store/data/Run2016E/SingleElectron/NANOAOD/Nano25Oct2019-v1/30000/9D1ED0BA-4577-0D47-BBE0-57F3F0EF6995.root
p1
aVroot://cms-xrdr.private.lo:2094//xrd/store/data/Run2016E/SingleElectron/NANOAOD/Nano25Oct2019-v1/30000/A561637F-B2AF-1142-8D07-3A592766D18D.root
p2
a.