(lp0
Vroot://cms-xrdr.private.lo:2094//xrd/store/data/Run2016F/SingleElectron/NANOAOD/Nano25Oct2019-v1/240000/74C8E7BD-3C64-E54B-BCBE-3C08173CC60B.root
p1
aVroot://cms-xrdr.private.lo:2094//xrd/store/data/Run2016F/SingleElectron/NANOAOD/Nano25Oct2019-v1/240000/77D5C0F8-0181-954B-9F32-6160404B844B.root
p2
a.