(lp0
Vroot://cms-xrdr.private.lo:2094//xrd/store/data/Run2016H/SingleElectron/NANOAOD/Nano25Oct2019-v1/30000/6D6E1588-FB17-2C49-ACC4-17D9C2EC2645.root
p1
aVroot://cms-xrdr.private.lo:2094//xrd/store/data/Run2016H/SingleElectron/NANOAOD/Nano25Oct2019-v1/30000/725AFAFB-6E56-FA4D-AF4A-879F1F5F830F.root
p2
a.