(lp0
Vroot://cms-xrdr.private.lo:2094//xrd/store/data/Run2016D/SingleElectron/NANOAOD/Nano25Oct2019-v1/230000/ADF4D780-0056-AD42-876F-A8E92D91F649.root
p1
aVroot://cms-xrdr.private.lo:2094//xrd/store/data/Run2016D/SingleElectron/NANOAOD/Nano25Oct2019-v1/230000/AF07EC1A-DBDF-844F-8D2E-228AB6592A72.root
p2
a.