(lp0
Vroot://cms-xrdr.private.lo:2094//xrd/store/data/Run2016D/SingleElectron/NANOAOD/Nano25Oct2019-v1/230000/481B7E2D-2ADF-6643-B0D2-C395C8A88E90.root
p1
aVroot://cms-xrdr.private.lo:2094//xrd/store/data/Run2016D/SingleElectron/NANOAOD/Nano25Oct2019-v1/230000/4B43D9C3-A963-0443-ABA7-C8BF6850DF92.root
p2
a.