(lp0
Vroot://cms-xrdr.private.lo:2094//xrd/store/data/Run2016H/SingleElectron/NANOAOD/Nano25Oct2019-v1/30000/2C96CD61-57FA-3C42-859C-0D03C6D89724.root
p1
aVroot://cms-xrdr.private.lo:2094//xrd/store/data/Run2016H/SingleElectron/NANOAOD/Nano25Oct2019-v1/30000/2CC3A6D3-70A9-B445-AD92-D2D873D747C0.root
p2
a.