(lp0
Vroot://cms-xrdr.private.lo:2094//xrd/store/data/Run2016H/SingleMuon/NANOAOD/Nano25Oct2019-v1/60000/F20B4FF9-2DB8-8C4B-8920-DE0C94C09E61.root
p1
aVroot://cms-xrdr.private.lo:2094//xrd/store/data/Run2016H/SingleMuon/NANOAOD/Nano25Oct2019-v1/60000/F51DFD3F-DFF3-DF4F-B858-6FB6EFF4D4F1.root
p2
a.