(lp0
Vroot://cms-xrdr.private.lo:2094//xrd/store/data/Run2016H/DoubleMuon/NANOAOD/Nano25Oct2019-v1/40000/3F296B0D-4FC2-284C-8569-D4CEECEF0F40.root
p1
aVroot://cms-xrdr.private.lo:2094//xrd/store/data/Run2016H/DoubleMuon/NANOAOD/Nano25Oct2019-v1/40000/4C680116-F476-954B-B26A-D1C992B08F87.root
p2
a.