(lp0
Vroot://cms-xrdr.private.lo:2094//xrd/store/data/Run2016H/SingleElectron/NANOAOD/Nano25Oct2019-v1/30000/89320232-ABD1-A44B-A384-A235B72D17E4.root
p1
aVroot://cms-xrdr.private.lo:2094//xrd/store/data/Run2016H/SingleElectron/NANOAOD/Nano25Oct2019-v1/30000/92DBD63A-E8FF-1B49-BF78-2844C1C23DDF.root
p2
a.