(lp0
Vroot://cms-xrdr.private.lo:2094//xrd/store/data/Run2016B_ver2/DoubleMuon/NANOAOD/Nano25Oct2019_ver2-v1/100000/4831921A-213B-3541-B295-48486A2E8B9F.root
p1
aVroot://cms-xrdr.private.lo:2094//xrd/store/data/Run2016B_ver2/DoubleMuon/NANOAOD/Nano25Oct2019_ver2-v1/100000/4E3902A3-2294-DE42-AEF4-D0EDDFFC4F68.root
p2
a.