(lp0
Vroot://cms-xrdr.private.lo:2094//xrd/store/data/Run2016E/SingleElectron/NANOAOD/Nano25Oct2019-v1/30000/F1F8BACB-71F8-FB4E-BFEE-A2632079CCAE.root
p1
aVroot://cms-xrdr.private.lo:2094//xrd/store/data/Run2016E/SingleElectron/NANOAOD/Nano25Oct2019-v1/30000/F1FC2DFB-5B8B-B74B-B673-16734AB499C4.root
p2
a.