(lp0
Vroot://cms-xrdr.private.lo:2094//xrd/store/data/Run2016E/SingleElectron/NANOAOD/Nano25Oct2019-v1/30000/EBFE8B03-2E62-E943-BBFE-7161D52729BB.root
p1
aVroot://cms-xrdr.private.lo:2094//xrd/store/data/Run2016E/SingleElectron/NANOAOD/Nano25Oct2019-v1/30000/EE0494A2-34D5-3346-9987-5653C2B90839.root
p2
a.