(lp0
Vroot://cms-xrdr.private.lo:2094//xrd/store/data/Run2016B_ver2/DoubleMuon/NANOAOD/Nano25Oct2019_ver2-v1/40000/DBD880D4-73E7-3C4E-917A-0158C3D180AA.root
p1
aVroot://cms-xrdr.private.lo:2094//xrd/store/data/Run2016B_ver2/DoubleMuon/NANOAOD/Nano25Oct2019_ver2-v1/40000/DC072A90-186B-A241-B314-D506C26C0CA8.root
p2
a.