(lp0
Vroot://cms-xrdr.private.lo:2094//xrd/store/data/Run2016F/SingleMuon/NANOAOD/Nano25Oct2019-v1/30000/B18923B6-14E9-A84F-B20B-DDF942B5F3C5.root
p1
aVroot://cms-xrdr.private.lo:2094//xrd/store/data/Run2016F/SingleMuon/NANOAOD/Nano25Oct2019-v1/30000/B3DB87F0-FFC6-4844-A05A-B381C9BF6C13.root
p2
a.