(lp0
Vroot://cms-xrdr.private.lo:2094//xrd/store/data/Run2016G/SingleElectron/NANOAOD/Nano25Oct2019-v1/20000/AA04CC39-BA88-D74A-939C-EEBBFCBB75B1.root
p1
aVroot://cms-xrdr.private.lo:2094//xrd/store/data/Run2016G/SingleElectron/NANOAOD/Nano25Oct2019-v1/20000/AB097302-61B3-A84B-A173-7AC3710DFDE5.root
p2
a.