(lp0
Vroot://cms-xrdr.private.lo:2094//xrd/store/data/Run2016D/SingleMuon/NANOAOD/Nano25Oct2019-v1/240000/256EB8BE-2A8C-B64D-B46F-2EBEB916B2B3.root
p1
aVroot://cms-xrdr.private.lo:2094//xrd/store/data/Run2016D/SingleMuon/NANOAOD/Nano25Oct2019-v1/240000/32C0DF1B-67DE-3C4D-9D91-E0F00E3FB7D1.root
p2
a.