(lp0
Vroot://cms-xrdr.private.lo:2094//xrd/store/data/Run2016G/SingleElectron/NANOAOD/Nano25Oct2019-v1/20000/81326140-6B7D-C748-9A0C-C62EDBDF7DAA.root
p1
aVroot://cms-xrdr.private.lo:2094//xrd/store/data/Run2016G/SingleElectron/NANOAOD/Nano25Oct2019-v1/20000/86E8297D-F23A-8E45-9040-CA7A119B2E3D.root
p2
a.