(lp0
Vroot://cms-xrdr.private.lo:2094//xrd/store/data/Run2016H/SingleElectron/NANOAOD/Nano25Oct2019-v1/30000/AE202039-67AC-CB4C-91C7-6D629AE3DCFF.root
p1
aVroot://cms-xrdr.private.lo:2094//xrd/store/data/Run2016H/SingleElectron/NANOAOD/Nano25Oct2019-v1/30000/AE2EB6CA-21AD-A240-BFD8-85B334B4E9A4.root
p2
a.