(lp0
Vroot://cms-xrdr.private.lo:2094//xrd/store/data/Run2016C/SingleElectron/NANOAOD/Nano25Oct2019-v1/20000/59FED01E-469C-694C-BE20-7AB6C4E3894F.root
p1
aVroot://cms-xrdr.private.lo:2094//xrd/store/data/Run2016C/SingleElectron/NANOAOD/Nano25Oct2019-v1/20000/5C91D6AE-B31E-1A4E-A244-00728ACEC212.root
p2
a.