(lp0
Vroot://cms-xrdr.private.lo:2094//xrd/store/data/Run2016H/SingleMuon/NANOAOD/Nano25Oct2019-v1/60000/BE1BBCA0-4055-F642-975C-2FFAEC753A84.root
p1
aVroot://cms-xrdr.private.lo:2094//xrd/store/data/Run2016H/SingleMuon/NANOAOD/Nano25Oct2019-v1/60000/C06CEE39-FC80-384E-823A-F6A75F2367C1.root
p2
a.