(lp0
Vroot://cms-xrdr.private.lo:2094//xrd/store/data/Run2016D/SingleElectron/NANOAOD/Nano25Oct2019-v1/230000/AF0F4AC3-8B31-D64E-996B-19B696469752.root
p1
aVroot://cms-xrdr.private.lo:2094//xrd/store/data/Run2016D/SingleElectron/NANOAOD/Nano25Oct2019-v1/230000/B55A7CD4-D883-0F43-A7E5-9B2EA460CE43.root
p2
a.