(lp0
Vroot://cms-xrdr.private.lo:2094//xrd/store/data/Run2016D/SingleElectron/NANOAOD/Nano25Oct2019-v1/230000/8153167D-D1C0-8B40-BF5D-AF52A32A882C.root
p1
aVroot://cms-xrdr.private.lo:2094//xrd/store/data/Run2016D/SingleElectron/NANOAOD/Nano25Oct2019-v1/230000/85C8D987-D6DE-FA49-A12A-76C27DFF832A.root
p2
a.