(lp0
Vroot://cms-xrdr.private.lo:2094//xrd/store/data/Run2016C/DoubleMuon/NANOAOD/Nano25Oct2019-v1/40000/3B88C48F-AAED-114A-B51A-2440D5965410.root
p1
aVroot://cms-xrdr.private.lo:2094//xrd/store/data/Run2016C/DoubleMuon/NANOAOD/Nano25Oct2019-v1/40000/4D4DE527-FE0C-3C42-AAD3-2CF0DB00E120.root
p2
a.