(lp0
Vroot://cms-xrdr.private.lo:2094//xrd/store/data/Run2016G/SingleElectron/NANOAOD/Nano25Oct2019-v1/20000/B08042CE-024D-4242-B21A-7AC0CBC3210A.root
p1
aVroot://cms-xrdr.private.lo:2094//xrd/store/data/Run2016G/SingleElectron/NANOAOD/Nano25Oct2019-v1/20000/B0872B00-5E84-7A40-9DA8-A8D28996FFA3.root
p2
a.