(lp0
Vroot://cms-xrdr.private.lo:2094//xrd/store/data/Run2016G/SingleElectron/NANOAOD/Nano25Oct2019-v1/20000/4DB8F03E-E892-6C4B-A073-32AC4D096B99.root
p1
aVroot://cms-xrdr.private.lo:2094//xrd/store/data/Run2016G/SingleElectron/NANOAOD/Nano25Oct2019-v1/20000/505B4E45-0A58-1849-BCA5-AB7B910773AD.root
p2
a.