(lp0
Vroot://cms-xrdr.private.lo:2094//xrd/store/data/Run2016C/SingleMuon/NANOAOD/Nano25Oct2019-v1/40000/6E41F143-3B40-7940-A251-3C8A2D7A2798.root
p1
aVroot://cms-xrdr.private.lo:2094//xrd/store/data/Run2016C/SingleMuon/NANOAOD/Nano25Oct2019-v1/40000/767CCE6E-9D30-2C4D-AAAA-7001A3F7927E.root
p2
a.