(lp0
Vroot://cms-xrdr.private.lo:2094//xrd/store/data/Run2016C/SingleMuon/NANOAOD/Nano25Oct2019-v1/40000/E88CF755-3355-9D4A-8E5D-965EEF76EA3C.root
p1
aVroot://cms-xrdr.private.lo:2094//xrd/store/data/Run2016C/SingleMuon/NANOAOD/Nano25Oct2019-v1/40000/EC23D7F2-5D6C-2F4E-88CF-E99880CD96FB.root
p2
a.