(lp0
Vroot://cms-xrdr.private.lo:2094//xrd/store/data/Run2016F/SingleMuon/NANOAOD/Nano25Oct2019-v1/30000/A74A88BA-E02F-3A4F-BC89-0AB15896099F.root
p1
aVroot://cms-xrdr.private.lo:2094//xrd/store/data/Run2016F/SingleMuon/NANOAOD/Nano25Oct2019-v1/30000/A8EE6979-C2E5-3046-A2ED-829F37A9635C.root
p2
a.