(lp0
Vroot://cms-xrdr.private.lo:2094//xrd/store/data/Run2016D/SingleMuon/NANOAOD/Nano25Oct2019-v1/20000/D34C0905-C2EC-7A4E-BC63-2787B9BD46D0.root
p1
aVroot://cms-xrdr.private.lo:2094//xrd/store/data/Run2016D/SingleMuon/NANOAOD/Nano25Oct2019-v1/20000/E7E4FDA8-3C44-4141-AFDF-6F1633E92286.root
p2
a.