(lp0
Vroot://cms-xrdr.private.lo:2094//xrd/store/data/Run2016F/SingleMuon/NANOAOD/Nano25Oct2019-v1/30000/05CB5097-ED0B-5A4D-8A8B-BA58650B46BF.root
p1
aVroot://cms-xrdr.private.lo:2094//xrd/store/data/Run2016F/SingleMuon/NANOAOD/Nano25Oct2019-v1/30000/0BD60DF3-1699-524A-8E37-04589C675DBF.root
p2
a.