(lp0
Vroot://cms-xrdr.private.lo:2094//xrd/store/data/Run2016G/SingleMuon/NANOAOD/Nano25Oct2019-v1/40000/4FAC3FC1-A3C3-AC45-877B-2A87AA7256E8.root
p1
aVroot://cms-xrdr.private.lo:2094//xrd/store/data/Run2016G/SingleMuon/NANOAOD/Nano25Oct2019-v1/40000/51015E68-E836-9342-B15E-A5E3D537BC1D.root
p2
a.