(lp0
Vroot://cms-xrdr.private.lo:2094//xrd/store/data/Run2016E/SingleElectron/NANOAOD/Nano25Oct2019-v1/30000/97001380-84A1-8E47-B6C8-6B73BDB644FC.root
p1
aVroot://cms-xrdr.private.lo:2094//xrd/store/data/Run2016E/SingleElectron/NANOAOD/Nano25Oct2019-v1/30000/9C7F1AC7-36CC-5D41-B439-989BB1CED325.root
p2
a.