(lp0
Vroot://cms-xrdr.private.lo:2094//xrd/store/data/Run2016H/SingleElectron/NANOAOD/Nano25Oct2019-v1/30000/4C93D998-FECD-F843-8919-5E430EF57D7A.root
p1
aVroot://cms-xrdr.private.lo:2094//xrd/store/data/Run2016H/SingleElectron/NANOAOD/Nano25Oct2019-v1/30000/4DC6A655-AF80-9445-92DD-74BD4B7625B7.root
p2
a.