(lp0
Vroot://cms-xrdr.private.lo:2094//xrd/store/data/Run2016G/SingleMuon/NANOAOD/Nano25Oct2019-v1/40000/1ED9CDBA-F45C-7144-966B-F87FA1C53DB0.root
p1
aVroot://cms-xrdr.private.lo:2094//xrd/store/data/Run2016G/SingleMuon/NANOAOD/Nano25Oct2019-v1/40000/1EFE5E5B-D4ED-4D4E-BB32-786962A958E7.root
p2
a.