(lp0
Vroot://cms-xrdr.private.lo:2094//xrd/store/data/Run2016G/SingleElectron/NANOAOD/Nano25Oct2019-v1/20000/9F9F3718-412E-1140-BFD3-8CEEF2C293AF.root
p1
aVroot://cms-xrdr.private.lo:2094//xrd/store/data/Run2016G/SingleElectron/NANOAOD/Nano25Oct2019-v1/20000/A342129B-BC93-B14B-B4D5-16E6E62E3765.root
p2
a.