(lp0
Vroot://cms-xrdr.private.lo:2094//xrd/store/data/Run2016H/SingleElectron/NANOAOD/Nano25Oct2019-v1/30000/C17915D2-EF8A-EB43-A515-5470DF02B603.root
p1
aVroot://cms-xrdr.private.lo:2094//xrd/store/data/Run2016H/SingleElectron/NANOAOD/Nano25Oct2019-v1/30000/C4AAAE54-59CB-3C42-B233-6D3AD8D2D405.root
p2
a.