(lp0
Vroot://cms-xrdr.private.lo:2094//xrd/store/data/Run2016H/SingleMuon/NANOAOD/Nano25Oct2019-v1/60000/BAF90F1D-AB2E-A34F-A5EC-F8282DE320A6.root
p1
aVroot://cms-xrdr.private.lo:2094//xrd/store/data/Run2016H/SingleMuon/NANOAOD/Nano25Oct2019-v1/60000/BD09B0E5-59E4-5440-8832-A70ECF670E61.root
p2
a.