(lp0
Vroot://cms-xrdr.private.lo:2094//xrd/store/data/Run2016E/SingleMuon/NANOAOD/Nano25Oct2019-v1/230000/4B2A2DF6-9E65-1845-85DA-5A1020F15ADE.root
p1
aVroot://cms-xrdr.private.lo:2094//xrd/store/data/Run2016E/SingleMuon/NANOAOD/Nano25Oct2019-v1/230000/4F37D371-3D54-2B48-B3C2-583A07030F14.root
p2
a.