(lp0
Vroot://cms-xrdr.private.lo:2094//xrd/store/data/Run2016D/DoubleMuon/NANOAOD/Nano25Oct2019-v1/30000/991740F0-1AC1-DF40-9195-68AF2BC42979.root
p1
aVroot://cms-xrdr.private.lo:2094//xrd/store/data/Run2016D/DoubleMuon/NANOAOD/Nano25Oct2019-v1/30000/9C0921AF-0C7F-BC43-B321-19C0799AB79A.root
p2
a.