(lp0
Vroot://cms-xrdr.private.lo:2094//xrd/store/data/Run2016H/SingleMuon/NANOAOD/Nano25Oct2019-v1/60000/F82A25DA-A73C-B841-98EA-E20DCCF3D23A.root
p1
aVroot://cms-xrdr.private.lo:2094//xrd/store/data/Run2016H/SingleMuon/NANOAOD/Nano25Oct2019-v1/60000/FABBFD28-5898-E146-B18A-74F7AC0250F6.root
p2
a.