(lp0
Vroot://cms-xrdr.private.lo:2094//xrd/store/data/Run2016C/SingleElectron/NANOAOD/Nano25Oct2019-v1/20000/2DFCD2EC-7F0B-7D4E-86A6-117541F71384.root
p1
aVroot://cms-xrdr.private.lo:2094//xrd/store/data/Run2016C/SingleElectron/NANOAOD/Nano25Oct2019-v1/20000/31FD4461-4A11-EF4C-8930-8FFEB3D6224E.root
p2
a.