(lp0
Vroot://cms-xrdr.private.lo:2094//xrd/store/data/Run2016H/SingleElectron/NANOAOD/Nano25Oct2019-v1/30000/94BA46C0-3971-684D-BF9D-7D22E92A2AE5.root
p1
aVroot://cms-xrdr.private.lo:2094//xrd/store/data/Run2016H/SingleElectron/NANOAOD/Nano25Oct2019-v1/30000/98670E46-7AFE-A649-B3CD-ED20556F73C9.root
p2
a.