(lp0
Vroot://cms-xrdr.private.lo:2094//xrd/store/data/Run2016H/SingleMuon/NANOAOD/Nano25Oct2019-v1/60000/7BB1C0F3-3ED6-0146-B7CA-19F16C88F3BA.root
p1
aVroot://cms-xrdr.private.lo:2094//xrd/store/data/Run2016H/SingleMuon/NANOAOD/Nano25Oct2019-v1/60000/7DDAB486-E734-784B-BBD7-FB2473E4573D.root
p2
a.