(lp0
Vroot://cms-xrdr.private.lo:2094//xrd/store/data/Run2016D/SingleElectron/NANOAOD/Nano25Oct2019-v1/230000/C42B767B-CE92-5C4A-934C-931A95CA742F.root
p1
aVroot://cms-xrdr.private.lo:2094//xrd/store/data/Run2016D/SingleElectron/NANOAOD/Nano25Oct2019-v1/230000/C4E659DA-1DDB-A643-BA2C-A0A195E20BF4.root
p2
a.