(lp0
Vroot://cms-xrdr.private.lo:2094//xrd/store/data/Run2016G/SingleMuon/NANOAOD/Nano25Oct2019-v1/40000/A62921FA-3407-0A46-9853-AAE8E63DE340.root
p1
aVroot://cms-xrdr.private.lo:2094//xrd/store/data/Run2016G/SingleMuon/NANOAOD/Nano25Oct2019-v1/40000/A8B797BF-1AA6-DD41-B6AC-ACCB9750E740.root
p2
a.