(lp0
Vroot://cms-xrdr.private.lo:2094//xrd/store/data/Run2016E/SingleElectron/NANOAOD/Nano25Oct2019-v1/30000/79D1E14A-ADCB-DC48-9EBC-9F09CD197226.root
p1
aVroot://cms-xrdr.private.lo:2094//xrd/store/data/Run2016E/SingleElectron/NANOAOD/Nano25Oct2019-v1/30000/7B3F6EC9-C076-9447-9B28-7C3F6CC6C42B.root
p2
a.