(lp0
Vroot://cms-xrdr.private.lo:2094//xrd/store/data/Run2016H/SingleElectron/NANOAOD/Nano25Oct2019-v1/30000/310B30B1-0213-474B-80AC-D78F04F70606.root
p1
aVroot://cms-xrdr.private.lo:2094//xrd/store/data/Run2016H/SingleElectron/NANOAOD/Nano25Oct2019-v1/30000/353AD9B8-7D7C-EE41-B6ED-F31F3CE6B731.root
p2
a.