(lp0
Vroot://cms-xrdr.private.lo:2094//xrd/store/data/Run2016E/SingleElectron/NANOAOD/Nano25Oct2019-v1/30000/E2A1B0A5-E281-EA40-9B51-6CB8C411B9B2.root
p1
aVroot://cms-xrdr.private.lo:2094//xrd/store/data/Run2016E/SingleElectron/NANOAOD/Nano25Oct2019-v1/30000/E897E0D9-1D1F-EA41-9C37-C0DEA9746F35.root
p2
a.