(lp0
Vroot://cms-xrdr.private.lo:2094//xrd/store/data/Run2016D/SingleElectron/NANOAOD/Nano25Oct2019-v1/230000/0D7D833E-CC14-9C43-858C-1B0A82E08B26.root
p1
aVroot://cms-xrdr.private.lo:2094//xrd/store/data/Run2016D/SingleElectron/NANOAOD/Nano25Oct2019-v1/230000/11865A20-60A4-3E4F-830E-B46DA4ABF373.root
p2
a.