(lp0
Vroot://cms-xrdr.private.lo:2094//xrd/store/data/Run2016H/SingleElectron/NANOAOD/Nano25Oct2019-v1/30000/3CD03F9C-4787-0E44-AF4D-5D16EDBF0C8E.root
p1
aVroot://cms-xrdr.private.lo:2094//xrd/store/data/Run2016H/SingleElectron/NANOAOD/Nano25Oct2019-v1/30000/3DE29900-C754-FD42-8E6A-F1EB317E3A9C.root
p2
a.