(lp0
Vroot://cms-xrdr.private.lo:2094//xrd/store/data/Run2016C/SingleMuon/NANOAOD/Nano25Oct2019-v1/40000/3D38B121-9F3D-664B-A16D-46123CFFBD8B.root
p1
aVroot://cms-xrdr.private.lo:2094//xrd/store/data/Run2016C/SingleMuon/NANOAOD/Nano25Oct2019-v1/40000/412BFEBE-32AD-1E45-BCCD-BD9396D5CB8F.root
p2
a.