(lp0
Vroot://cms-xrdr.private.lo:2094//xrd/store/data/Run2016D/SingleElectron/NANOAOD/Nano25Oct2019-v1/230000/7D61FC7C-B85F-DF4A-94A2-C409A55169A1.root
p1
aVroot://cms-xrdr.private.lo:2094//xrd/store/data/Run2016D/SingleElectron/NANOAOD/Nano25Oct2019-v1/230000/7DDA25B4-2113-6945-8F9F-BB8D51E0A55E.root
p2
a.