(lp0
Vroot://cms-xrdr.private.lo:2094//xrd/store/data/Run2016D/SingleMuon/NANOAOD/Nano25Oct2019-v1/20000/4771DB0C-98FB-9A4B-8361-3C0CEAF6705F.root
p1
aVroot://cms-xrdr.private.lo:2094//xrd/store/data/Run2016D/SingleMuon/NANOAOD/Nano25Oct2019-v1/20000/5EF403DF-CC67-0146-B2C7-5F4B3EA7F13C.root
p2
a.