(lp0
Vroot://cms-xrdr.private.lo:2094//xrd/store/data/Run2016H/DoubleMuon/NANOAOD/Nano25Oct2019-v1/40000/56491BBB-0A09-154F-A9B8-12C6A468C522.root
p1
aVroot://cms-xrdr.private.lo:2094//xrd/store/data/Run2016H/DoubleMuon/NANOAOD/Nano25Oct2019-v1/40000/6FEADFBB-DBE5-0148-BA3F-E7A9E199C971.root
p2
a.