(lp0
Vroot://cms-xrdr.private.lo:2094//xrd/store/data/Run2016F/DoubleMuon/NANOAOD/Nano25Oct2019-v1/60000/88BD8109-D6AA-B44C-BF1A-EA44F3EAF857.root
p1
aVroot://cms-xrdr.private.lo:2094//xrd/store/data/Run2016F/DoubleMuon/NANOAOD/Nano25Oct2019-v1/60000/94E9A294-D48B-CE42-8421-DFB67AB1EBAE.root
p2
a.