(lp0
Vroot://cms-xrdr.private.lo:2094//xrd/store/data/Run2016H/SingleElectron/NANOAOD/Nano25Oct2019-v1/30000/22F448FF-CB20-7F42-86CD-C1B5E65D28E1.root
p1
aVroot://cms-xrdr.private.lo:2094//xrd/store/data/Run2016H/SingleElectron/NANOAOD/Nano25Oct2019-v1/30000/291FC4D8-A02B-7C41-B6D2-BFCE3415730B.root
p2
a.