(lp0
Vroot://cms-xrdr.private.lo:2094//xrd/store/data/Run2016G/SingleMuon/NANOAOD/Nano25Oct2019-v1/40000/BDCD26D4-83E0-EB42-A237-F3DC4C7EB158.root
p1
aVroot://cms-xrdr.private.lo:2094//xrd/store/data/Run2016G/SingleMuon/NANOAOD/Nano25Oct2019-v1/40000/C2944A3C-C846-294F-B7C4-917A0662A369.root
p2
a.