(lp0
Vroot://cms-xrdr.private.lo:2094//xrd/store/data/Run2016E/SingleElectron/NANOAOD/Nano25Oct2019-v1/30000/8B3AF3DD-DECE-6449-AB55-40F74FC79A51.root
p1
aVroot://cms-xrdr.private.lo:2094//xrd/store/data/Run2016E/SingleElectron/NANOAOD/Nano25Oct2019-v1/30000/9465C3A6-399F-C54E-AABE-C26BDD6EF4B4.root
p2
a.