(lp0
Vroot://cms-xrdr.private.lo:2094//xrd/store/data/Run2016D/SingleElectron/NANOAOD/Nano25Oct2019-v1/230000/11EA4CCC-1288-5C42-B0CA-40F3000ECAF1.root
p1
aVroot://cms-xrdr.private.lo:2094//xrd/store/data/Run2016D/SingleElectron/NANOAOD/Nano25Oct2019-v1/230000/139083D6-DBEF-D94D-B2C0-547D390119CA.root
p2
a.