(lp0
Vroot://cms-xrdr.private.lo:2094//xrd/store/data/Run2016D/SingleElectron/NANOAOD/Nano25Oct2019-v1/230000/4F3DC3BE-59CC-0942-BE68-DE1952EE0E28.root
p1
aVroot://cms-xrdr.private.lo:2094//xrd/store/data/Run2016D/SingleElectron/NANOAOD/Nano25Oct2019-v1/230000/4F5B1E33-336B-3844-961A-4931C0A7E6A5.root
p2
a.