(lp0
Vroot://cms-xrdr.private.lo:2094//xrd/store/data/Run2016H/SingleElectron/NANOAOD/Nano25Oct2019-v1/30000/3EA7FC9F-7644-D244-9CCA-D92BC699C829.root
p1
aVroot://cms-xrdr.private.lo:2094//xrd/store/data/Run2016H/SingleElectron/NANOAOD/Nano25Oct2019-v1/30000/3EBFD749-BC93-1440-92EF-9E2E3ACE5BB1.root
p2
a.