(lp0
Vroot://cms-xrdr.private.lo:2094//xrd/store/data/Run2016H/SingleMuon/NANOAOD/Nano25Oct2019-v1/60000/1E896D1B-4CF2-EC47-8498-2EFF95B934F9.root
p1
aVroot://cms-xrdr.private.lo:2094//xrd/store/data/Run2016H/SingleMuon/NANOAOD/Nano25Oct2019-v1/60000/1EADA83B-3D5A-004F-BFEC-7477C0A7A5EA.root
p2
a.