(lp0
Vroot://cms-xrdr.private.lo:2094//xrd/store/data/Run2016F/SingleElectron/NANOAOD/Nano25Oct2019-v1/240000/9B6AE9EB-6B6C-5643-9BBF-409476DCB8CE.root
p1
aVroot://cms-xrdr.private.lo:2094//xrd/store/data/Run2016F/SingleElectron/NANOAOD/Nano25Oct2019-v1/240000/A433E749-3AFE-304A-98A8-EC0380E81DB6.root
p2
a.