(lp0
Vroot://cms-xrdr.private.lo:2094//xrd/store/data/Run2016G/SingleMuon/NANOAOD/Nano25Oct2019-v1/40000/189EF291-4EAA-AC4B-A48E-9C1E6223C9FF.root
p1
aVroot://cms-xrdr.private.lo:2094//xrd/store/data/Run2016G/SingleMuon/NANOAOD/Nano25Oct2019-v1/40000/1A5331D8-2A28-754B-90C5-D2FFCA48ADA3.root
p2
a.