(lp0
Vroot://cms-xrdr.private.lo:2094//xrd/store/data/Run2016H/DoubleMuon/NANOAOD/Nano25Oct2019-v1/40000/E3D31142-7F66-5740-9A69-2E49B46D135B.root
p1
aVroot://cms-xrdr.private.lo:2094//xrd/store/data/Run2016H/DoubleMuon/NANOAOD/Nano25Oct2019-v1/40000/EE93BA54-5A75-784F-B12C-E564AF220417.root
p2
a.