(lp0
Vroot://cms-xrdr.private.lo:2094//xrd/store/data/Run2016H/SingleElectron/NANOAOD/Nano25Oct2019-v1/30000/016FF83D-2544-7249-B61F-AB0E60FA1B8A.root
p1
aVroot://cms-xrdr.private.lo:2094//xrd/store/data/Run2016H/SingleElectron/NANOAOD/Nano25Oct2019-v1/30000/04801FFE-0761-DF4C-8270-D65BF025EC8F.root
p2
a.