(lp0
Vroot://cms-xrdr.private.lo:2094//xrd/store/data/Run2016E/SingleMuon/NANOAOD/Nano25Oct2019-v1/230000/0A5A0A67-4F05-D54D-A3AB-8625AC59994F.root
p1
aVroot://cms-xrdr.private.lo:2094//xrd/store/data/Run2016E/SingleMuon/NANOAOD/Nano25Oct2019-v1/230000/175F0BD0-A8F1-FF4E-B0FE-ACAC51B59525.root
p2
a.