(lp0
Vroot://cms-xrdr.private.lo:2094//xrd/store/data/Run2016D/SingleMuon/NANOAOD/Nano25Oct2019-v1/240000/BFEF23F4-3A05-5C4A-A269-C37F0AF0943F.root
p1
aVroot://cms-xrdr.private.lo:2094//xrd/store/data/Run2016D/SingleMuon/NANOAOD/Nano25Oct2019-v1/240000/D4B6DCD4-9F5E-2F4E-A9AA-44103BD18DD5.root
p2
a.