(lp0
Vroot://cms-xrdr.private.lo:2094//xrd/store/data/Run2016C/SingleElectron/NANOAOD/Nano25Oct2019-v1/20000/0067B80A-1E23-F049-B965-FF7CAECFAC05.root
p1
aVroot://cms-xrdr.private.lo:2094//xrd/store/data/Run2016C/SingleElectron/NANOAOD/Nano25Oct2019-v1/20000/0D0D6B5E-6440-5E47-ADE8-4DA898FD3820.root
p2
a.