(lp0
Vroot://cms-xrdr.private.lo:2094//xrd/store/data/Run2016F/SingleMuon/NANOAOD/Nano25Oct2019-v1/30000/BA1BE85F-0089-544A-8E82-A4F8DB0E1586.root
p1
aVroot://cms-xrdr.private.lo:2094//xrd/store/data/Run2016F/SingleMuon/NANOAOD/Nano25Oct2019-v1/30000/BDC33F0A-9CB2-A548-8953-03DC5A49B537.root
p2
a.