(lp0
Vroot://cms-xrdr.private.lo:2094//xrd/store/data/Run2016B_ver2/DoubleMuon/NANOAOD/Nano25Oct2019_ver2-v1/40000/6A16B5DA-85DF-4C41-96B3-A35ACEC222A5.root
p1
aVroot://cms-xrdr.private.lo:2094//xrd/store/data/Run2016B_ver2/DoubleMuon/NANOAOD/Nano25Oct2019_ver2-v1/40000/6ACA8C39-F657-B949-B0A8-2480C335AA86.root
p2
a.