(lp0
Vroot://cms-xrdr.private.lo:2094//xrd/store/data/Run2016H/SingleMuon/NANOAOD/Nano25Oct2019-v1/60000/0DE80F77-8D16-644A-8B60-752CEBAA16F0.root
p1
aVroot://cms-xrdr.private.lo:2094//xrd/store/data/Run2016H/SingleMuon/NANOAOD/Nano25Oct2019-v1/60000/0E7B4378-0264-A84A-99B9-BB1783D8E272.root
p2
a.