(lp0
Vroot://cms-xrdr.private.lo:2094//xrd/store/data/Run2016G/SingleMuon/NANOAOD/Nano25Oct2019-v1/40000/7FD6B750-7508-5741-8D9C-6B4BAD9BF8E9.root
p1
aVroot://cms-xrdr.private.lo:2094//xrd/store/data/Run2016G/SingleMuon/NANOAOD/Nano25Oct2019-v1/40000/85F6AC92-2405-9743-B5A5-8A868D3F53A8.root
p2
a.