(lp0
Vroot://cms-xrdr.private.lo:2094//xrd/store/data/Run2016D/SingleMuon/NANOAOD/Nano25Oct2019-v1/240000/B4FE1DA8-401F-9C4C-8D50-1944387E4F52.root
p1
aVroot://cms-xrdr.private.lo:2094//xrd/store/data/Run2016D/SingleMuon/NANOAOD/Nano25Oct2019-v1/240000/B76569C5-671B-E44D-9DDC-F7C89EE99C0D.root
p2
a.