(lp0
Vroot://cms-xrdr.private.lo:2094//xrd/store/data/Run2016F/SingleMuon/NANOAOD/Nano25Oct2019-v1/30000/5C82FF3D-2573-B64F-AE4D-D27134E574D0.root
p1
aVroot://cms-xrdr.private.lo:2094//xrd/store/data/Run2016F/SingleMuon/NANOAOD/Nano25Oct2019-v1/30000/6AA52978-B4F1-8047-97F2-6465D1A252F2.root
p2
a.