(lp0
Vroot://cms-xrdr.private.lo:2094//xrd/store/data/Run2016G/SingleMuon/NANOAOD/Nano25Oct2019-v1/40000/A2D1DE3B-83E6-3743-96D9-03AA9115CA58.root
p1
aVroot://cms-xrdr.private.lo:2094//xrd/store/data/Run2016G/SingleMuon/NANOAOD/Nano25Oct2019-v1/40000/A30FF05F-3B76-5F42-90F7-85210CC2DB57.root
p2
a.