(lp0
Vroot://cms-xrdr.private.lo:2094//xrd/store/data/Run2016H/SingleElectron/NANOAOD/Nano25Oct2019-v1/30000/20008EF1-F32E-8545-A02D-C50C001B9705.root
p1
aVroot://cms-xrdr.private.lo:2094//xrd/store/data/Run2016H/SingleElectron/NANOAOD/Nano25Oct2019-v1/30000/22CEAE31-FA6F-BF4C-A12E-F2E5C96FC4EE.root
p2
a.