(lp0
Vroot://cms-xrdr.private.lo:2094//xrd/store/data/Run2016G/SingleElectron/NANOAOD/Nano25Oct2019-v1/20000/D26BF722-75CE-8E43-A571-925DCEF5B4A2.root
p1
aVroot://cms-xrdr.private.lo:2094//xrd/store/data/Run2016G/SingleElectron/NANOAOD/Nano25Oct2019-v1/20000/D61DA087-96B0-8347-8245-CE8BF7DF2656.root
p2
a.