(lp0
Vroot://cms-xrdr.private.lo:2094//xrd/store/data/Run2016E/SingleElectron/NANOAOD/Nano25Oct2019-v1/30000/F50456CB-E649-524F-836E-430B21A0AB95.root
p1
aVroot://cms-xrdr.private.lo:2094//xrd/store/data/Run2016E/SingleElectron/NANOAOD/Nano25Oct2019-v1/30000/FBEE5B97-E348-4345-A324-B969D0AF651E.root
p2
a.