(lp0
Vroot://cms-xrdr.private.lo:2094//xrd/store/data/Run2016D/SingleElectron/NANOAOD/Nano25Oct2019-v1/230000/B5DFB8FF-E469-5B4D-9751-9D8FC5D75C7A.root
p1
aVroot://cms-xrdr.private.lo:2094//xrd/store/data/Run2016D/SingleElectron/NANOAOD/Nano25Oct2019-v1/230000/B8246EE8-FAC7-084D-B8BE-C886F64C1361.root
p2
a.