(lp0
Vroot://cms-xrdr.private.lo:2094//xrd/store/data/Run2016E/SingleMuon/NANOAOD/Nano25Oct2019-v1/230000/7129C5D0-2EC3-8E4F-BA6C-A74E4423E2DB.root
p1
aVroot://cms-xrdr.private.lo:2094//xrd/store/data/Run2016E/SingleMuon/NANOAOD/Nano25Oct2019-v1/230000/7564F98C-A3CF-274D-8471-0509339446EA.root
p2
a.