(lp0
Vroot://cms-xrdr.private.lo:2094//xrd/store/data/Run2016H/SingleMuon/NANOAOD/Nano25Oct2019-v1/60000/5E669956-3D1D-FC4A-AFA5-63A98E9382A7.root
p1
aVroot://cms-xrdr.private.lo:2094//xrd/store/data/Run2016H/SingleMuon/NANOAOD/Nano25Oct2019-v1/60000/5F3DE51C-E312-3A4F-9AAF-15260B7F8DDD.root
p2
a.