(lp0
Vroot://cms-xrdr.private.lo:2094//xrd/store/data/Run2016G/SingleElectron/NANOAOD/Nano25Oct2019-v1/20000/B88E085B-4F11-824A-A9CD-6F862A82F3A6.root
p1
aVroot://cms-xrdr.private.lo:2094//xrd/store/data/Run2016G/SingleElectron/NANOAOD/Nano25Oct2019-v1/20000/B9777736-B3D9-1145-BDAF-4FA74BD1B8A1.root
p2
a.