(lp0
Vroot://cms-xrdr.private.lo:2094//xrd/store/data/Run2016D/SingleMuon/NANOAOD/Nano25Oct2019-v1/240000/3A2AE5CC-A0AA-204B-9C0E-DDB32D67C6BC.root
p1
aVroot://cms-xrdr.private.lo:2094//xrd/store/data/Run2016D/SingleMuon/NANOAOD/Nano25Oct2019-v1/240000/50F1FE9D-B94F-3248-86F4-783443B3FEFE.root
p2
a.