(lp0
Vroot://cms-xrdr.private.lo:2094//xrd/store/data/Run2016C/DoubleMuon/NANOAOD/Nano25Oct2019-v1/40000/071D5D22-8B52-8E49-A606-AF1E1E15FA77.root
p1
aVroot://cms-xrdr.private.lo:2094//xrd/store/data/Run2016C/DoubleMuon/NANOAOD/Nano25Oct2019-v1/40000/10489321-D85A-7547-A2B8-0ADDAFB3D84C.root
p2
a.