(lp0
Vroot://cms-xrdr.private.lo:2094//xrd/store/data/Run2016E/SingleElectron/NANOAOD/Nano25Oct2019-v1/270000/1FC3E5B2-784E-DF46-9542-021283B886E3.root
p1
aVroot://cms-xrdr.private.lo:2094//xrd/store/data/Run2016E/SingleElectron/NANOAOD/Nano25Oct2019-v1/270000/5AC63A21-5469-8440-B97F-E4E68093340E.root
p2
a.