(lp0
Vroot://cms-xrdr.private.lo:2094//xrd/store/data/Run2016D/SingleElectron/NANOAOD/Nano25Oct2019-v1/230000/885DFD04-3415-DC44-8FA2-6063F132BA7C.root
p1
aVroot://cms-xrdr.private.lo:2094//xrd/store/data/Run2016D/SingleElectron/NANOAOD/Nano25Oct2019-v1/230000/8BB28757-5C3A-2A47-B6EC-AED9DB4264CA.root
p2
a.