(lp0
Vroot://cms-xrdr.private.lo:2094//xrd/store/data/Run2016B_ver2/SingleElectron/NANOAOD/Nano25Oct2019_ver2-v1/240000/C71CD22E-BF28-A048-84A9-1A2117FE0AE0.root
p1
aVroot://cms-xrdr.private.lo:2094//xrd/store/data/Run2016B_ver2/SingleElectron/NANOAOD/Nano25Oct2019_ver2-v1/240000/CE8F1DEE-867D-8D4D-B0B8-7A2FB5F99E47.root
p2
a.