(lp0
Vroot://cms-xrdr.private.lo:2094//xrd/store/data/Run2016H/SingleElectron/NANOAOD/Nano25Oct2019-v1/30000/6D1F2906-F115-1546-B62F-D21FE5F97825.root
p1
aVroot://cms-xrdr.private.lo:2094//xrd/store/data/Run2016H/SingleElectron/NANOAOD/Nano25Oct2019-v1/30000/6D2B8DC0-C87C-6041-9800-BE586002BF12.root
p2
a.