(lp0
Vroot://cms-xrdr.private.lo:2094//xrd/store/data/Run2016F/SingleElectron/NANOAOD/Nano25Oct2019-v1/240000/CBFD2644-ED1F-424A-A4A5-722FCF7C3C37.root
p1
aVroot://cms-xrdr.private.lo:2094//xrd/store/data/Run2016F/SingleElectron/NANOAOD/Nano25Oct2019-v1/240000/CF7133DB-4E6E-704E-8CD5-E23EBD2E9CDD.root
p2
a.