(lp0
Vroot://cms-xrdr.private.lo:2094//xrd/store/data/Run2016B_ver2/SingleMuon/NANOAOD/Nano25Oct2019_ver2-v1/40000/AA4DEB8F-7940-124E-977F-4618000EE8D4.root
p1
aVroot://cms-xrdr.private.lo:2094//xrd/store/data/Run2016B_ver2/SingleMuon/NANOAOD/Nano25Oct2019_ver2-v1/40000/B3183DF8-4AEC-7A4A-B6F1-4879B11B46E8.root
p2
a.