(lp0
Vroot://cms-xrdr.private.lo:2094//xrd/store/data/Run2016G/SingleElectron/NANOAOD/Nano25Oct2019-v1/20000/CC7BED65-41EE-654F-83EB-7065682ADB2C.root
p1
aVroot://cms-xrdr.private.lo:2094//xrd/store/data/Run2016G/SingleElectron/NANOAOD/Nano25Oct2019-v1/20000/D0F092B6-097C-044E-AB80-C6B2ECE09A90.root
p2
a.