(lp0
Vroot://cms-xrdr.private.lo:2094//xrd/store/data/Run2016D/SingleMuon/NANOAOD/Nano25Oct2019-v1/20000/22B8B9C0-F3A5-4346-A9D0-4DFF069A3803.root
p1
aVroot://cms-xrdr.private.lo:2094//xrd/store/data/Run2016D/SingleMuon/NANOAOD/Nano25Oct2019-v1/20000/284B3BF9-23A0-0448-9124-D951FB7136A0.root
p2
a.