(lp0
Vroot://cms-xrdr.private.lo:2094//xrd/store/data/Run2016G/SingleMuon/NANOAOD/Nano25Oct2019-v1/40000/003224E7-7EED-4D4E-A954-8F7EE9A46B6A.root
p1
aVroot://cms-xrdr.private.lo:2094//xrd/store/data/Run2016G/SingleMuon/NANOAOD/Nano25Oct2019-v1/40000/05B515D0-EBFF-694C-9F23-DC9908DE8CB5.root
p2
a.