(lp0
Vroot://cms-xrdr.private.lo:2094//xrd/store/data/Run2016H/SingleMuon/NANOAOD/Nano25Oct2019-v1/60000/1B642B9C-E241-0D49-A832-E4CC904C26DF.root
p1
aVroot://cms-xrdr.private.lo:2094//xrd/store/data/Run2016H/SingleMuon/NANOAOD/Nano25Oct2019-v1/60000/1E17BBB2-2E75-C946-9880-3601BB24FD9A.root
p2
a.