(lp0
Vroot://cms-xrdr.private.lo:2094//xrd/store/data/Run2016F/SingleElectron/NANOAOD/Nano25Oct2019-v1/240000/60B78EFB-A1E1-E841-BEA5-4FEED31589FC.root
p1
aVroot://cms-xrdr.private.lo:2094//xrd/store/data/Run2016F/SingleElectron/NANOAOD/Nano25Oct2019-v1/240000/65E2CB03-3024-4D48-BD5B-246ED38A83AE.root
p2
a.