(lp0
Vroot://cms-xrdr.private.lo:2094//xrd/store/data/Run2016E/SingleMuon/NANOAOD/Nano25Oct2019-v1/230000/45BD4CEA-9EEF-DA42-BA30-F4B5A283FAF3.root
p1
aVroot://cms-xrdr.private.lo:2094//xrd/store/data/Run2016E/SingleMuon/NANOAOD/Nano25Oct2019-v1/230000/495AFE99-34FF-BB45-A94B-6D7E4AE264FB.root
p2
a.