(lp0
Vroot://cms-xrdr.private.lo:2094//xrd/store/data/Run2016G/SingleMuon/NANOAOD/Nano25Oct2019-v1/40000/A4D4B8CD-33A2-1241-8A99-2D9DF86EF7DF.root
p1
aVroot://cms-xrdr.private.lo:2094//xrd/store/data/Run2016G/SingleMuon/NANOAOD/Nano25Oct2019-v1/40000/A50A28AB-3111-804D-B3BD-108ACA0CD1AB.root
p2
a.