(lp0
Vroot://cms-xrdr.private.lo:2094//xrd/store/data/Run2016E/SingleMuon/NANOAOD/Nano25Oct2019-v1/230000/3B6966D3-B422-A34C-B8C4-DF4977B1BD6B.root
p1
aVroot://cms-xrdr.private.lo:2094//xrd/store/data/Run2016E/SingleMuon/NANOAOD/Nano25Oct2019-v1/230000/4551DB6C-E420-C54E-93D1-10D1CAABD379.root
p2
a.