(lp0
Vroot://cms-xrdr.private.lo:2094//xrd/store/data/Run2016H/SingleMuon/NANOAOD/Nano25Oct2019-v1/60000/DBD06F86-DC53-FB4E-B6C5-11D0BE2E8266.root
p1
aVroot://cms-xrdr.private.lo:2094//xrd/store/data/Run2016H/SingleMuon/NANOAOD/Nano25Oct2019-v1/60000/DE2C8DE5-9A55-DD41-BAEF-E4B70C151FB5.root
p2
a.