(lp0
Vroot://cms-xrdr.private.lo:2094//xrd/store/data/Run2016H/DoubleMuon/NANOAOD/Nano25Oct2019-v1/40000/BC521071-EEAD-9D4A-A7BC-70ACE0A2FE0D.root
p1
aVroot://cms-xrdr.private.lo:2094//xrd/store/data/Run2016H/DoubleMuon/NANOAOD/Nano25Oct2019-v1/40000/D2DD37AA-4A5D-854E-A78E-666D1D7D30C7.root
p2
a.