(lp0
Vroot://cms-xrdr.private.lo:2094//xrd/store/data/Run2016H/SingleMuon/NANOAOD/Nano25Oct2019-v1/60000/F5FC4C29-4440-A549-9F91-16B15538D116.root
p1
aVroot://cms-xrdr.private.lo:2094//xrd/store/data/Run2016H/SingleMuon/NANOAOD/Nano25Oct2019-v1/60000/F6F033D3-1C9D-E34A-98A7-0562E78EE3B2.root
p2
a.