(lp0
Vroot://cms-xrdr.private.lo:2094//xrd/store/data/Run2016E/DoubleMuon/NANOAOD/Nano25Oct2019-v1/230000/2FF8FC6A-B191-3944-88A4-9ED1139BF62D.root
p1
aVroot://cms-xrdr.private.lo:2094//xrd/store/data/Run2016E/DoubleMuon/NANOAOD/Nano25Oct2019-v1/230000/399A660C-D2A6-904C-BE21-C775D5AF3CB1.root
p2
a.