(lp0
Vroot://cms-xrdr.private.lo:2094//xrd/store/data/Run2016H/DoubleMuon/NANOAOD/Nano25Oct2019-v1/40000/0E81B1E2-E047-C24E-9506-F19AD2DE21C2.root
p1
aVroot://cms-xrdr.private.lo:2094//xrd/store/data/Run2016H/DoubleMuon/NANOAOD/Nano25Oct2019-v1/40000/13BD4856-3F43-8A4E-86A0-5A40B7760B6A.root
p2
a.