(lp0
Vroot://cms-xrdr.private.lo:2094//xrd/store/data/Run2016H/SingleElectron/NANOAOD/Nano25Oct2019-v1/30000/7E3BE86A-96B1-8449-8E8C-89C7A35F2FF3.root
p1
aVroot://cms-xrdr.private.lo:2094//xrd/store/data/Run2016H/SingleElectron/NANOAOD/Nano25Oct2019-v1/30000/88F24B26-6832-A64B-B075-2DB2212AB9DF.root
p2
a.