(lp0
Vroot://cms-xrdr.private.lo:2094//xrd/store/data/Run2016D/SingleElectron/NANOAOD/Nano25Oct2019-v1/230000/F28B1D42-5B83-9E4D-9266-BEA989165E85.root
p1
aVroot://cms-xrdr.private.lo:2094//xrd/store/data/Run2016D/SingleElectron/NANOAOD/Nano25Oct2019-v1/230000/FA9D3288-B2B5-304A-A796-EBBFE2F3BB0A.root
p2
a.