(lp0
Vroot://cms-xrdr.private.lo:2094//xrd/store/data/Run2016G/SingleElectron/NANOAOD/Nano25Oct2019-v1/20000/1CB7C9EF-2346-A847-8AEF-54F984EFE7AE.root
p1
aVroot://cms-xrdr.private.lo:2094//xrd/store/data/Run2016G/SingleElectron/NANOAOD/Nano25Oct2019-v1/20000/209B81CD-F6A6-0C4F-96FD-3CEFDDE05F7E.root
p2
a.