(lp0
Vroot://cms-xrdr.private.lo:2094//xrd/store/data/Run2016G/SingleElectron/NANOAOD/Nano25Oct2019-v1/20000/B4C29F5F-E5ED-9F43-9122-DA308584C9EF.root
p1
aVroot://cms-xrdr.private.lo:2094//xrd/store/data/Run2016G/SingleElectron/NANOAOD/Nano25Oct2019-v1/20000/B50CB27C-F610-0E4E-93B7-84C582C066BA.root
p2
a.