(lp0
Vroot://cms-xrdr.private.lo:2094//xrd/store/data/Run2016D/SingleElectron/NANOAOD/Nano25Oct2019-v1/230000/DD4E334A-869A-C249-BC0C-02D278486A05.root
p1
aVroot://cms-xrdr.private.lo:2094//xrd/store/data/Run2016D/SingleElectron/NANOAOD/Nano25Oct2019-v1/230000/E6DAF118-6BDD-B54B-9140-3AC8C4CDD6A3.root
p2
a.