(lp0
Vroot://cms-xrdr.private.lo:2094//xrd/store/data/Run2016B_ver2/SingleMuon/NANOAOD/Nano25Oct2019_ver2-v1/40000/201D0DBF-CB50-314E-927E-8551DBFB5F64.root
p1
aVroot://cms-xrdr.private.lo:2094//xrd/store/data/Run2016B_ver2/SingleMuon/NANOAOD/Nano25Oct2019_ver2-v1/40000/2F0787CA-F6BE-8649-A1E9-927C19F116F1.root
p2
a.