(lp0
Vroot://cms-xrdr.private.lo:2094//xrd/store/data/Run2016F/SingleMuon/NANOAOD/Nano25Oct2019-v1/30000/6C570E8C-2BD7-1A46-A01B-7EF0C4639093.root
p1
aVroot://cms-xrdr.private.lo:2094//xrd/store/data/Run2016F/SingleMuon/NANOAOD/Nano25Oct2019-v1/30000/6DF2BFB5-6709-0B48-97B5-7C9B946568F7.root
p2
a.