(lp0
Vroot://cms-xrdr.private.lo:2094//xrd/store/data/Run2016E/SingleElectron/NANOAOD/Nano25Oct2019-v1/270000/808B1CBD-8E2C-6A4C-AA82-09FCA02F59B0.root
p1
aVroot://cms-xrdr.private.lo:2094//xrd/store/data/Run2016E/SingleElectron/NANOAOD/Nano25Oct2019-v1/270000/85CB18AC-72CF-1C41-9CF1-E97F542F1FB1.root
p2
a.