(lp0
Vroot://cms-xrdr.private.lo:2094//xrd/store/data/Run2016D/SingleMuon/NANOAOD/Nano25Oct2019-v1/240000/AAC375C1-41AD-3E41-8077-10183B05AF07.root
p1
aVroot://cms-xrdr.private.lo:2094//xrd/store/data/Run2016D/SingleMuon/NANOAOD/Nano25Oct2019-v1/240000/AE206E9F-16B5-AF48-AB05-C4BD4F543B19.root
p2
a.