(lp0
Vroot://cms-xrdr.private.lo:2094//xrd/store/data/Run2016H/SingleMuon/NANOAOD/Nano25Oct2019-v1/60000/CAF541E9-A118-4948-BCC2-6A26E2265386.root
p1
aVroot://cms-xrdr.private.lo:2094//xrd/store/data/Run2016H/SingleMuon/NANOAOD/Nano25Oct2019-v1/60000/CBD3CEB4-9986-DE4B-A10B-4AFC362344F2.root
p2
a.