(lp0
Vroot://cms-xrdr.private.lo:2094//xrd/store/data/Run2016E/SingleElectron/NANOAOD/Nano25Oct2019-v1/30000/082FC0FC-E642-9D43-A771-E4BD7D2C80B6.root
p1
aVroot://cms-xrdr.private.lo:2094//xrd/store/data/Run2016E/SingleElectron/NANOAOD/Nano25Oct2019-v1/30000/0CF767E5-2000-3341-AD66-87508EE8FD32.root
p2
a.