(lp0
Vroot://cms-xrdr.private.lo:2094//xrd/store/data/Run2016B_ver2/SingleMuon/NANOAOD/Nano25Oct2019_ver2-v1/20000/7C5CDCED-F2FF-5542-8AE4-D6ADDD65DD17.root
p1
aVroot://cms-xrdr.private.lo:2094//xrd/store/data/Run2016B_ver2/SingleMuon/NANOAOD/Nano25Oct2019_ver2-v1/20000/7C7861CB-BAC8-724F-9F40-9AD79CCE4A5E.root
p2
a.