(lp0
Vroot://cms-xrdr.private.lo:2094//xrd/store/data/Run2016C/SingleElectron/NANOAOD/Nano25Oct2019-v1/20000/3C601CD7-6895-BB4D-B7F6-7277D72236D6.root
p1
aVroot://cms-xrdr.private.lo:2094//xrd/store/data/Run2016C/SingleElectron/NANOAOD/Nano25Oct2019-v1/20000/3FB25AFE-7105-1047-8CDA-1A75563F6216.root
p2
a.