(lp0
Vroot://cms-xrdr.private.lo:2094//xrd/store/data/Run2016C/SingleElectron/NANOAOD/Nano25Oct2019-v1/20000/D59ADD5B-DA47-F94C-85B8-81E8FA9E0F6F.root
p1
aVroot://cms-xrdr.private.lo:2094//xrd/store/data/Run2016C/SingleElectron/NANOAOD/Nano25Oct2019-v1/20000/D5A0D7A5-F9C0-3E45-A035-1962A4647AF3.root
p2
a.