(lp0
Vroot://cms-xrdr.private.lo:2094//xrd/store/data/Run2016C/SingleMuon/NANOAOD/Nano25Oct2019-v1/40000/0D6A91DB-C2A2-6348-9A01-0F3E67976610.root
p1
aVroot://cms-xrdr.private.lo:2094//xrd/store/data/Run2016C/SingleMuon/NANOAOD/Nano25Oct2019-v1/40000/11686DB6-3E9E-4D4E-A31C-4C80CA7888DD.root
p2
a.