(lp0
Vroot://cms-xrdr.private.lo:2094//xrd/store/data/Run2016F/SingleElectron/NANOAOD/Nano25Oct2019-v1/240000/301C274F-2439-2645-9DEC-8D766109AE3F.root
p1
aVroot://cms-xrdr.private.lo:2094//xrd/store/data/Run2016F/SingleElectron/NANOAOD/Nano25Oct2019-v1/240000/343D568C-0D30-7148-A273-42F6C189CA6D.root
p2
a.