(lp0
Vroot://cms-xrdr.private.lo:2094//xrd/store/data/Run2016D/SingleMuon/NANOAOD/Nano25Oct2019-v1/20000/C02FA3E4-46B9-D244-BABC-FB55F1FD5644.root
p1
aVroot://cms-xrdr.private.lo:2094//xrd/store/data/Run2016D/SingleMuon/NANOAOD/Nano25Oct2019-v1/20000/CD2E961C-A01E-8A41-97C4-4B251292E52A.root
p2
a.