(lp0
Vroot://cms-xrdr.private.lo:2094//xrd/store/data/Run2016H/SingleElectron/NANOAOD/Nano25Oct2019-v1/30000/0E1391FC-68AD-8F4F-B9D1-723C89C12B5C.root
p1
aVroot://cms-xrdr.private.lo:2094//xrd/store/data/Run2016H/SingleElectron/NANOAOD/Nano25Oct2019-v1/30000/0EA8E333-9F41-9E4F-BDE2-437838104063.root
p2
a.