(lp0
Vroot://cms-xrdr.private.lo:2094//xrd/store/data/Run2016C/SingleElectron/NANOAOD/Nano25Oct2019-v1/20000/C7679A37-D300-D440-9C91-5DEBEF46E803.root
p1
aVroot://cms-xrdr.private.lo:2094//xrd/store/data/Run2016C/SingleElectron/NANOAOD/Nano25Oct2019-v1/20000/D2119BFB-767B-0845-8E58-E173A8204034.root
p2
a.