(lp0
Vroot://cms-xrdr.private.lo:2094//xrd/store/data/Run2016H/SingleElectron/NANOAOD/Nano25Oct2019-v1/30000/1AD00EEC-D3A9-684B-91E0-F0594ECED5A4.root
p1
aVroot://cms-xrdr.private.lo:2094//xrd/store/data/Run2016H/SingleElectron/NANOAOD/Nano25Oct2019-v1/30000/1BD72626-DE6D-764B-84B0-44ECC1004F0A.root
p2
a.