(lp0
Vroot://cms-xrdr.private.lo:2094//xrd/store/data/Run2016G/SingleMuon/NANOAOD/Nano25Oct2019-v1/40000/9FFEB4CC-B4C2-F049-BB69-D93BBB0485AE.root
p1
aVroot://cms-xrdr.private.lo:2094//xrd/store/data/Run2016G/SingleMuon/NANOAOD/Nano25Oct2019-v1/40000/A22687F4-642C-A640-A73D-CC4F128966EE.root
p2
a.