(lp0
Vroot://cms-xrdr.private.lo:2094//xrd/store/data/Run2016H/SingleMuon/NANOAOD/Nano25Oct2019-v1/60000/8A4EE47E-F98B-9A43-9028-104BE4FA3FBA.root
p1
aVroot://cms-xrdr.private.lo:2094//xrd/store/data/Run2016H/SingleMuon/NANOAOD/Nano25Oct2019-v1/60000/8E94523B-2BD7-FF4E-8C6D-2E71B1D54F0A.root
p2
a.