(lp0
Vroot://cms-xrdr.private.lo:2094//xrd/store/data/Run2016H/SingleElectron/NANOAOD/Nano25Oct2019-v1/30000/EABB3AE7-4EEA-D244-8978-389C4037AAF8.root
p1
aVroot://cms-xrdr.private.lo:2094//xrd/store/data/Run2016H/SingleElectron/NANOAOD/Nano25Oct2019-v1/30000/EE0DF8DC-4041-D14A-947D-70B3CE61EADC.root
p2
a.