(lp0
Vroot://cms-xrdr.private.lo:2094//xrd/store/data/Run2016C/SingleElectron/NANOAOD/Nano25Oct2019-v1/20000/A5AE19DD-69EF-6740-92C9-50C289CFD273.root
p1
aVroot://cms-xrdr.private.lo:2094//xrd/store/data/Run2016C/SingleElectron/NANOAOD/Nano25Oct2019-v1/20000/A7C63629-609C-6841-B4E8-F5F6AFD473CC.root
p2
a.