(lp0
Vroot://cms-xrdr.private.lo:2094//xrd/store/data/Run2016C/SingleElectron/NANOAOD/Nano25Oct2019-v1/20000/5D8705C8-5ACB-FC46-9D69-13D5E6DC51FB.root
p1
aVroot://cms-xrdr.private.lo:2094//xrd/store/data/Run2016C/SingleElectron/NANOAOD/Nano25Oct2019-v1/20000/5E41C903-7CD1-9F4C-B568-3CBFF87779AB.root
p2
a.