(lp0
Vroot://cms-xrdr.private.lo:2094//xrd/store/data/Run2016G/SingleMuon/NANOAOD/Nano25Oct2019-v1/40000/2784F2AA-88CD-084E-8EE7-BA47B9CCE20E.root
p1
aVroot://cms-xrdr.private.lo:2094//xrd/store/data/Run2016G/SingleMuon/NANOAOD/Nano25Oct2019-v1/40000/2A891693-1E7A-1B4F-BB27-26BF7F311DBE.root
p2
a.