(lp0
Vroot://cms-xrdr.private.lo:2094//xrd/store/data/Run2016F/DoubleMuon/NANOAOD/Nano25Oct2019-v1/60000/9B101C89-F4D6-5B40-AEC1-78C79E9CFED0.root
p1
aVroot://cms-xrdr.private.lo:2094//xrd/store/data/Run2016F/DoubleMuon/NANOAOD/Nano25Oct2019-v1/60000/BA37CC7C-8437-BD4C-B9C9-10084DCBC236.root
p2
a.