(lp0
Vroot://cms-xrdr.private.lo:2094//xrd/store/data/Run2016G/SingleMuon/NANOAOD/Nano25Oct2019-v1/40000/223054D5-9D68-E44A-A009-0B7324D1202C.root
p1
aVroot://cms-xrdr.private.lo:2094//xrd/store/data/Run2016G/SingleMuon/NANOAOD/Nano25Oct2019-v1/40000/25DC8BD3-6C6E-2A4F-A7DF-0F06F603E47C.root
p2
a.