(lp0
Vroot://cms-xrdr.private.lo:2094//xrd/store/data/Run2016H/SingleElectron/NANOAOD/Nano25Oct2019-v1/30000/B427D426-E467-FA40-8027-BCC01FC9EC1A.root
p1
aVroot://cms-xrdr.private.lo:2094//xrd/store/data/Run2016H/SingleElectron/NANOAOD/Nano25Oct2019-v1/30000/B54503A2-CF94-7340-AEDE-EFF703CE2BA2.root
p2
a.