(lp0
Vroot://cms-xrdr.private.lo:2094//xrd/store/data/Run2016H/SingleMuon/NANOAOD/Nano25Oct2019-v1/60000/616EBC8B-7158-9441-AF6B-E34D1FAFFF5B.root
p1
aVroot://cms-xrdr.private.lo:2094//xrd/store/data/Run2016H/SingleMuon/NANOAOD/Nano25Oct2019-v1/60000/6315B4C8-B360-B74F-846A-0DD2D1289906.root
p2
a.