(lp0
Vroot://cms-xrdr.private.lo:2094//xrd/store/data/Run2016H/SingleMuon/NANOAOD/Nano25Oct2019-v1/60000/4B8F5B87-8051-4540-A662-8E53F8BE94A3.root
p1
aVroot://cms-xrdr.private.lo:2094//xrd/store/data/Run2016H/SingleMuon/NANOAOD/Nano25Oct2019-v1/60000/4BC9DFBA-5609-EC4A-A4E7-01AA6E72D2D3.root
p2
a.