(lp0
Vroot://cms-xrdr.private.lo:2094//xrd/store/data/Run2016E/SingleElectron/NANOAOD/Nano25Oct2019-v1/30000/B41ECA85-C766-874C-9F3D-A47F76868E6D.root
p1
aVroot://cms-xrdr.private.lo:2094//xrd/store/data/Run2016E/SingleElectron/NANOAOD/Nano25Oct2019-v1/30000/B8BA2A74-A31A-1948-9D6E-E4E0159AC787.root
p2
a.