(lp0
Vroot://cms-xrdr.private.lo:2094//xrd/store/data/Run2016H/SingleElectron/NANOAOD/Nano25Oct2019-v1/30000/4E0DE6C7-6D2E-DB44-B677-0D76FE714E4C.root
p1
aVroot://cms-xrdr.private.lo:2094//xrd/store/data/Run2016H/SingleElectron/NANOAOD/Nano25Oct2019-v1/30000/4F9DBC65-3194-8145-A395-F4FF28C22C01.root
p2
a.