(lp0
Vroot://cms-xrdr.private.lo:2094//xrd/store/data/Run2016G/DoubleMuon/NANOAOD/Nano25Oct2019-v1/40000/05A02A06-BEEF-DD48-83B3-A260907FF5E0.root
p1
aVroot://cms-xrdr.private.lo:2094//xrd/store/data/Run2016G/DoubleMuon/NANOAOD/Nano25Oct2019-v1/40000/15C4527C-75A6-6E43-B43F-740237E2F29F.root
p2
a.