(lp0
Vroot://cms-xrdr.private.lo:2094//xrd/store/data/Run2016F/DoubleMuon/NANOAOD/Nano25Oct2019-v1/60000/227C9072-ED3B-314B-AA9B-6D86320E9864.root
p1
aVroot://cms-xrdr.private.lo:2094//xrd/store/data/Run2016F/DoubleMuon/NANOAOD/Nano25Oct2019-v1/60000/2F6ECBE5-0363-6D44-A3F6-DD02B92F6616.root
p2
a.