(lp0
Vroot://cms-xrdr.private.lo:2094//xrd/store/data/Run2016B_ver2/DoubleMuon/NANOAOD/Nano25Oct2019_ver2-v1/250000/1A7E044B-A7DB-BE4C-A266-AD938FEC9420.root
p1
aVroot://cms-xrdr.private.lo:2094//xrd/store/data/Run2016B_ver2/DoubleMuon/NANOAOD/Nano25Oct2019_ver2-v1/250000/1BDD4A17-7B16-F945-BC9D-CBC0FADEDBFA.root
p2
a.