(lp0
Vroot://cms-xrdr.private.lo:2094//xrd/store/data/Run2016D/SingleMuon/NANOAOD/Nano25Oct2019-v1/20000/7B1B99FD-7949-0B43-93A9-4D126843CAB2.root
p1
aVroot://cms-xrdr.private.lo:2094//xrd/store/data/Run2016D/SingleMuon/NANOAOD/Nano25Oct2019-v1/20000/7CB23CE6-18AC-B74A-BE1E-2BFC4283E326.root
p2
a.