(lp0
Vroot://cms-xrdr.private.lo:2094//xrd/store/data/Run2016C/SingleElectron/NANOAOD/Nano25Oct2019-v1/20000/76B5C45A-BFC2-9048-9E82-74CAD7BEADEC.root
p1
aVroot://cms-xrdr.private.lo:2094//xrd/store/data/Run2016C/SingleElectron/NANOAOD/Nano25Oct2019-v1/20000/79CE4A9F-5630-ED49-B9CB-C7FEDE6FFD14.root
p2
a.