(lp0
Vroot://cms-xrdr.private.lo:2094//xrd/store/data/Run2016G/SingleElectron/NANOAOD/Nano25Oct2019-v1/20000/6BBAD523-6EEF-E741-80C9-2674B2966DF4.root
p1
aVroot://cms-xrdr.private.lo:2094//xrd/store/data/Run2016G/SingleElectron/NANOAOD/Nano25Oct2019-v1/20000/700D21B6-C60A-C241-B3B8-67533BB6AEB8.root
p2
a.