(lp0
Vroot://cms-xrdr.private.lo:2094//xrd/store/data/Run2016H/SingleElectron/NANOAOD/Nano25Oct2019-v1/30000/AC4F8BCC-2650-B74C-94E5-C5BDC606DB4F.root
p1
aVroot://cms-xrdr.private.lo:2094//xrd/store/data/Run2016H/SingleElectron/NANOAOD/Nano25Oct2019-v1/30000/AE10AAD4-4588-DE47-8097-F4BC47405318.root
p2
a.