(lp0
Vroot://cms-xrdr.private.lo:2094//xrd/store/data/Run2016F/DoubleMuon/NANOAOD/Nano25Oct2019-v1/60000/78434E06-1445-2244-B911-5F9FB9BBEA76.root
p1
aVroot://cms-xrdr.private.lo:2094//xrd/store/data/Run2016F/DoubleMuon/NANOAOD/Nano25Oct2019-v1/60000/808CF19E-43AC-FA4A-890A-94B465BFF808.root
p2
a.