(lp0
Vroot://cms-xrdr.private.lo:2094//xrd/store/data/Run2016F/SingleMuon/NANOAOD/Nano25Oct2019-v1/30000/4813C155-24C9-5A4B-B869-C6FC21A8E0A6.root
p1
aVroot://cms-xrdr.private.lo:2094//xrd/store/data/Run2016F/SingleMuon/NANOAOD/Nano25Oct2019-v1/30000/48AAEA4B-B647-2741-B9CE-79C8A8936131.root
p2
a.