(lp0
Vroot://cms-xrdr.private.lo:2094//xrd/store/data/Run2016H/SingleMuon/NANOAOD/Nano25Oct2019-v1/60000/14E57755-B451-3D4E-B9F1-D590FA36D3E1.root
p1
aVroot://cms-xrdr.private.lo:2094//xrd/store/data/Run2016H/SingleMuon/NANOAOD/Nano25Oct2019-v1/60000/1680CB7D-6478-2845-9B4E-9C19384BC783.root
p2
a.