(lp0
Vroot://cms-xrdr.private.lo:2094//xrd/store/data/Run2016B_ver2/DoubleMuon/NANOAOD/Nano25Oct2019_ver2-v1/40000/93B7B168-DA9F-0C4B-8014-0FB1648D4FA4.root
p1
aVroot://cms-xrdr.private.lo:2094//xrd/store/data/Run2016B_ver2/DoubleMuon/NANOAOD/Nano25Oct2019_ver2-v1/40000/B38AEAF0-4AB4-4A41-92F3-AA51705E5925.root
p2
a.