(lp0
Vroot://cms-xrdr.private.lo:2094//xrd/store/data/Run2016G/SingleElectron/NANOAOD/Nano25Oct2019-v1/20000/35D7BF51-8B9B-D040-8479-8C4A59F2B75F.root
p1
aVroot://cms-xrdr.private.lo:2094//xrd/store/data/Run2016G/SingleElectron/NANOAOD/Nano25Oct2019-v1/20000/37280A25-5E2B-8A4E-B690-64BA8A0F303F.root
p2
a.