(lp0
Vroot://cms-xrdr.private.lo:2094//xrd/store/data/Run2016F/SingleElectron/NANOAOD/Nano25Oct2019-v1/240000/4432AA74-3BAC-C544-A64E-0F5385FB9F79.root
p1
aVroot://cms-xrdr.private.lo:2094//xrd/store/data/Run2016F/SingleElectron/NANOAOD/Nano25Oct2019-v1/240000/4EE1160A-8CB8-1C42-8264-7AF10E5D3013.root
p2
a.