(lp0
Vroot://cms-xrdr.private.lo:2094//xrd/store/data/Run2016C/DoubleMuon/NANOAOD/Nano25Oct2019-v1/40000/8A0B1152-D7FA-0D4C-A85E-0F07E54E80F7.root
p1
aVroot://cms-xrdr.private.lo:2094//xrd/store/data/Run2016C/DoubleMuon/NANOAOD/Nano25Oct2019-v1/40000/A6CE0662-2886-8B4F-AA56-386D122BA2D1.root
p2
a.