(lp0
Vroot://cms-xrdr.private.lo:2094//xrd/store/data/Run2016F/SingleElectron/NANOAOD/Nano25Oct2019-v1/240000/854A6B60-C835-3C4E-AE6F-84E8EA7A440F.root
p1
aVroot://cms-xrdr.private.lo:2094//xrd/store/data/Run2016F/SingleElectron/NANOAOD/Nano25Oct2019-v1/240000/870A2270-618D-BA41-A814-9FF7316BF8E6.root
p2
a.