(lp0
Vroot://cms-xrdr.private.lo:2094//xrd/store/data/Run2016B_ver2/DoubleMuon/NANOAOD/Nano25Oct2019_ver2-v1/40000/7D04BFA8-F8C1-6745-9280-1FFDF9E2704E.root
p1
aVroot://cms-xrdr.private.lo:2094//xrd/store/data/Run2016B_ver2/DoubleMuon/NANOAOD/Nano25Oct2019_ver2-v1/40000/7DE9C45D-5FFB-1F41-8705-D58693DACE05.root
p2
a.