(lp0
Vroot://cms-xrdr.private.lo:2094//xrd/store/data/Run2016F/DoubleMuon/NANOAOD/Nano25Oct2019-v1/60000/C04D98D7-C63D-3F49-9E75-35A94FE4014D.root
p1
aVroot://cms-xrdr.private.lo:2094//xrd/store/data/Run2016F/DoubleMuon/NANOAOD/Nano25Oct2019-v1/60000/C9F10F8A-6F6C-6644-8289-D35E9E772B08.root
p2
a.