(lp0
Vroot://cms-xrdr.private.lo:2094//xrd/store/data/Run2016B_ver2/SingleMuon/NANOAOD/Nano25Oct2019_ver2-v1/20000/61293178-0477-8F40-B762-DE883BCEAF29.root
p1
aVroot://cms-xrdr.private.lo:2094//xrd/store/data/Run2016B_ver2/SingleMuon/NANOAOD/Nano25Oct2019_ver2-v1/20000/618CC174-A3EC-CE43-849C-5CA97E76F570.root
p2
a.