(lp0
Vroot://cms-xrdr.private.lo:2094//xrd/store/data/Run2016C/SingleMuon/NANOAOD/Nano25Oct2019-v1/40000/C11724A3-3348-AC4F-A37F-EF8686CC1EDB.root
p1
aVroot://cms-xrdr.private.lo:2094//xrd/store/data/Run2016C/SingleMuon/NANOAOD/Nano25Oct2019-v1/40000/D6ED620C-CC03-6E48-A221-C83F87EF6AAD.root
p2
a.