(lp0
Vroot://cms-xrdr.private.lo:2094//xrd/store/data/Run2016H/SingleMuon/NANOAOD/Nano25Oct2019-v1/60000/97DD29F8-F09C-0340-BB70-0946E73D9CBF.root
p1
aVroot://cms-xrdr.private.lo:2094//xrd/store/data/Run2016H/SingleMuon/NANOAOD/Nano25Oct2019-v1/60000/99B8419A-542B-AC4F-A987-FEBA0D82DD63.root
p2
a.