(lp0
Vroot://cms-xrdr.private.lo:2094//xrd/store/data/Run2016F/SingleElectron/NANOAOD/Nano25Oct2019-v1/240000/5D7DF127-7D06-2C41-AAA4-D00F8C7A80A9.root
p1
aVroot://cms-xrdr.private.lo:2094//xrd/store/data/Run2016F/SingleElectron/NANOAOD/Nano25Oct2019-v1/240000/5DC01526-AAD5-244D-B134-E828FB2D56C5.root
p2
a.