(lp0
Vroot://cms-xrdr.private.lo:2094//xrd/store/data/Run2016D/SingleMuon/NANOAOD/Nano25Oct2019-v1/240000/A4A6C22B-6729-1B4B-A69B-327BD5C70D4C.root
p1
aVroot://cms-xrdr.private.lo:2094//xrd/store/data/Run2016D/SingleMuon/NANOAOD/Nano25Oct2019-v1/240000/A97193CF-4DAC-504B-A33A-32A9F0AA88E7.root
p2
a.