(lp0
Vroot://cms-xrdr.private.lo:2094//xrd/store/data/Run2017F/SingleElectron/NANOAOD/Nano25Oct2019-v1/240000/FAFA04B6-9BE6-674F-98F9-E9C685DF7C56.root
p1
aVroot://cms-xrdr.private.lo:2094//xrd/store/data/Run2017F/SingleElectron/NANOAOD/Nano25Oct2019-v1/240000/FE87971A-4B97-F449-9D40-503EF6714DB1.root
p2
a.