(lp0
Vroot://cms-xrdr.private.lo:2094//xrd/store/data/Run2017C/SingleElectron/NANOAOD/Nano25Oct2019-v1/20000/F6B6325A-6EA1-2741-B668-0B684E70E3A0.root
p1
aVroot://cms-xrdr.private.lo:2094//xrd/store/data/Run2017C/SingleElectron/NANOAOD/Nano25Oct2019-v1/20000/F7F3779F-2DEE-3547-944C-FC7CF61595EB.root
p2
a.