(lp0
Vroot://cms-xrdr.private.lo:2094//xrd/store/data/Run2017D/SingleElectron/NANOAOD/Nano25Oct2019-v1/20000/7394D2D9-69AF-7F4A-A00F-69131A6A6127.root
p1
aVroot://cms-xrdr.private.lo:2094//xrd/store/data/Run2017D/SingleElectron/NANOAOD/Nano25Oct2019-v1/20000/75F524A3-68EF-1E4D-9F0C-F5FA8329C52C.root
p2
a.