(lp0
Vroot://cms-xrdr.private.lo:2094//xrd/store/data/Run2017C/SingleElectron/NANOAOD/Nano25Oct2019-v1/20000/AB4CEA67-C717-AB49-B867-9776B4715861.root
p1
aVroot://cms-xrdr.private.lo:2094//xrd/store/data/Run2017C/SingleElectron/NANOAOD/Nano25Oct2019-v1/20000/AFA2DAD8-D30E-C44C-9882-1DED2B2DDC7E.root
p2
a.