(lp0
Vroot://cms-xrdr.private.lo:2094//xrd/store/data/Run2017E/SingleElectron/NANOAOD/Nano25Oct2019-v1/20000/82F8259E-47DF-654E-B6BE-ED13D4BBDF21.root
p1
aVroot://cms-xrdr.private.lo:2094//xrd/store/data/Run2017E/SingleElectron/NANOAOD/Nano25Oct2019-v1/20000/8A8B3E51-72CE-1D4E-AF53-D42A942379C7.root
p2
a.