(lp0
Vroot://cms-xrdr.private.lo:2094//xrd/store/data/Run2017D/SingleElectron/NANOAOD/Nano25Oct2019-v1/20000/4D67A00E-146F-6740-9379-40A92EC8B8C7.root
p1
aVroot://cms-xrdr.private.lo:2094//xrd/store/data/Run2017D/SingleElectron/NANOAOD/Nano25Oct2019-v1/20000/5553BF24-429B-FC44-9BAA-3B03C5F8A625.root
p2
a.