(lp0
Vroot://cms-xrdr.private.lo:2094//xrd/store/data/Run2017C/SingleElectron/NANOAOD/Nano25Oct2019-v1/20000/0450ACEF-E1E5-1345-8660-28CF5ABE26BE.root
p1
aVroot://cms-xrdr.private.lo:2094//xrd/store/data/Run2017C/SingleElectron/NANOAOD/Nano25Oct2019-v1/20000/055E61CB-30DE-0249-BE1C-953FDD03AEB0.root
p2
a.