(lp0
Vroot://cms-xrdr.private.lo:2094//xrd/store/data/Run2017C/SingleElectron/NANOAOD/Nano25Oct2019-v1/20000/C37F2CD3-86D1-114C-AAAA-2CCC2BCD48D6.root
p1
aVroot://cms-xrdr.private.lo:2094//xrd/store/data/Run2017C/SingleElectron/NANOAOD/Nano25Oct2019-v1/20000/C3899DEA-E384-B644-930F-4C9494EF3F4C.root
p2
a.