(lp0
Vroot://cms-xrdr.private.lo:2094//xrd/store/data/Run2017F/SingleElectron/NANOAOD/Nano25Oct2019-v1/240000/795917DA-C7A7-B341-A9B7-322B721A160E.root
p1
aVroot://cms-xrdr.private.lo:2094//xrd/store/data/Run2017F/SingleElectron/NANOAOD/Nano25Oct2019-v1/240000/7D94509C-7E53-4443-BBD0-29DF067CFCE8.root
p2
a.