(lp0
Vroot://cms-xrdr.private.lo:2094//xrd/store/data/Run2017E/SingleElectron/NANOAOD/Nano25Oct2019-v1/20000/5C8F6559-0EE0-B642-AB48-A38BF9E0FD3C.root
p1
aVroot://cms-xrdr.private.lo:2094//xrd/store/data/Run2017E/SingleElectron/NANOAOD/Nano25Oct2019-v1/20000/5F87C284-EEBD-FC42-90A0-3F1C3BA937BD.root
p2
a.