(lp0
Vroot://cms-xrdr.private.lo:2094//xrd/store/data/Run2017F/SingleElectron/NANOAOD/Nano25Oct2019-v1/240000/38A2E458-4B8A-E74D-A5C6-84B9BC9461D8.root
p1
aVroot://cms-xrdr.private.lo:2094//xrd/store/data/Run2017F/SingleElectron/NANOAOD/Nano25Oct2019-v1/240000/3BBD0352-EE4D-764F-BAFA-2EAFC1F3E0CF.root
p2
a.