(lp0
Vroot://cms-xrdr.private.lo:2094//xrd/store/data/Run2017E/SingleElectron/NANOAOD/Nano25Oct2019-v1/20000/8018A5E8-5CE8-D040-9FFE-18758A58B78C.root
p1
aVroot://cms-xrdr.private.lo:2094//xrd/store/data/Run2017E/SingleElectron/NANOAOD/Nano25Oct2019-v1/20000/815BCAE7-A01F-B74A-BD73-7BEDDB30E089.root
p2
a.