(lp0
Vroot://cms-xrdr.private.lo:2094//xrd/store/data/Run2017C/SingleElectron/NANOAOD/Nano25Oct2019-v1/20000/9D2CFA7E-54D6-994F-8CE1-B763FB7F27C7.root
p1
aVroot://cms-xrdr.private.lo:2094//xrd/store/data/Run2017C/SingleElectron/NANOAOD/Nano25Oct2019-v1/20000/9E73EAA0-F1DC-C04E-9E11-79B767C657C5.root
p2
a.