(lp0
Vroot://cms-xrdr.private.lo:2094//xrd/store/data/Run2017E/SingleElectron/NANOAOD/Nano25Oct2019-v1/20000/2C510A6D-DC60-CA4C-B7A1-31BE25EC013B.root
p1
aVroot://cms-xrdr.private.lo:2094//xrd/store/data/Run2017E/SingleElectron/NANOAOD/Nano25Oct2019-v1/20000/2D2D6BC3-1A46-2943-9931-721AC0EC4CDF.root
p2
a.