(lp0
Vroot://cms-xrdr.private.lo:2094//xrd/store/data/Run2017C/SingleElectron/NANOAOD/Nano25Oct2019-v1/20000/B25D824B-EB41-B347-BDB0-860885E55EE8.root
p1
aVroot://cms-xrdr.private.lo:2094//xrd/store/data/Run2017C/SingleElectron/NANOAOD/Nano25Oct2019-v1/20000/B29217AF-4BB3-AF4F-A56D-AA6E08DF44E2.root
p2
a.