(lp0
Vroot://cms-xrdr.private.lo:2094//xrd/store/data/Run2017F/SingleElectron/NANOAOD/Nano25Oct2019-v1/240000/DBB428C6-EB98-1645-B376-F36E16F5179E.root
p1
aVroot://cms-xrdr.private.lo:2094//xrd/store/data/Run2017F/SingleElectron/NANOAOD/Nano25Oct2019-v1/240000/DEBCF95F-EC86-B94D-8F6D-E811440ADA8B.root
p2
a.