(lp0
Vroot://cms-xrdr.private.lo:2094//xrd/store/data/Run2017B/SingleElectron/NANOAOD/Nano25Oct2019-v1/40000/5E1BA874-3BD5-1041-8E19-78B9D9D44ABC.root
p1
aVroot://cms-xrdr.private.lo:2094//xrd/store/data/Run2017B/SingleElectron/NANOAOD/Nano25Oct2019-v1/40000/6B88C537-E0A5-624F-9F1C-0B7E0E4E8527.root
p2
a.