(lp0
Vroot://cms-xrdr.private.lo:2094//xrd/store/data/Run2017B/SingleElectron/NANOAOD/Nano25Oct2019-v1/40000/87C6EDC6-E9CC-8C4C-BAD5-0C0F026B2B86.root
p1
aVroot://cms-xrdr.private.lo:2094//xrd/store/data/Run2017B/SingleElectron/NANOAOD/Nano25Oct2019-v1/40000/99A7BFD9-620C-8D47-93FB-E544D2E41A0A.root
p2
a.