(lp0
Vroot://cms-xrdr.private.lo:2094//xrd/store/data/Run2017F/SingleElectron/NANOAOD/Nano25Oct2019-v1/240000/8FA8ED19-99CE-F04C-814A-8CDFF33F4D02.root
p1
aVroot://cms-xrdr.private.lo:2094//xrd/store/data/Run2017F/SingleElectron/NANOAOD/Nano25Oct2019-v1/240000/91C7AB84-9525-AB40-B98C-F03D77934A6C.root
p2
a.