(lp0
Vroot://cms-xrdr.private.lo:2094//xrd/store/data/Run2017D/SingleElectron/NANOAOD/Nano25Oct2019-v1/20000/2D55187B-0C57-C043-AE6D-CB360E817B74.root
p1
aVroot://cms-xrdr.private.lo:2094//xrd/store/data/Run2017D/SingleElectron/NANOAOD/Nano25Oct2019-v1/20000/305E27BD-5F4E-0D44-AB49-52AB25C37CED.root
p2
a.