(lp0
Vroot://cms-xrdr.private.lo:2094//xrd/store/data/Run2017C/SingleElectron/NANOAOD/Nano25Oct2019-v1/20000/D10B3513-B798-2F48-8619-E5F72C845A0B.root
p1
aVroot://cms-xrdr.private.lo:2094//xrd/store/data/Run2017C/SingleElectron/NANOAOD/Nano25Oct2019-v1/20000/DAB2AF39-25F4-8B43-8D03-7E6D761F7C7F.root
p2
a.