(lp0
Vroot://cms-xrdr.private.lo:2094//xrd/store/data/Run2017E/SingleElectron/NANOAOD/Nano25Oct2019-v1/20000/72B96982-C3E8-7445-BC05-51866D94895E.root
p1
aVroot://cms-xrdr.private.lo:2094//xrd/store/data/Run2017E/SingleElectron/NANOAOD/Nano25Oct2019-v1/20000/742F2C3C-04C8-F342-A061-C72D60BF1917.root
p2
a.