(lp0
Vroot://cms-xrdr.private.lo:2094//xrd/store/data/Run2017F/SingleElectron/NANOAOD/Nano25Oct2019-v1/240000/264B00B8-C06E-D744-AB25-AC1B554E6148.root
p1
aVroot://cms-xrdr.private.lo:2094//xrd/store/data/Run2017F/SingleElectron/NANOAOD/Nano25Oct2019-v1/240000/26D8C4F8-6DC2-9D42-A4B0-234FC257C3DE.root
p2
a.