(lp0
Vroot://cms-xrdr.private.lo:2094//xrd/store/data/Run2017C/SingleElectron/NANOAOD/Nano25Oct2019-v1/20000/E2D6BB70-1616-CD43-9615-91E2454E8289.root
p1
aVroot://cms-xrdr.private.lo:2094//xrd/store/data/Run2017C/SingleElectron/NANOAOD/Nano25Oct2019-v1/20000/E4DFA653-D563-4D4F-9ED7-F265EF23A3D2.root
p2
a.