(lp0
Vroot://cms-xrdr.private.lo:2094//xrd/store/data/Run2017C/SingleElectron/NANOAOD/Nano25Oct2019-v1/20000/1ACE098D-B047-E346-8009-EFF01C09EDB1.root
p1
aVroot://cms-xrdr.private.lo:2094//xrd/store/data/Run2017C/SingleElectron/NANOAOD/Nano25Oct2019-v1/20000/218B53F8-B5C4-DB4B-8C21-282CFAF1F17D.root
p2
a.