(lp0
Vroot://cms-xrdr.private.lo:2094//xrd/store/data/Run2017F/SingleElectron/NANOAOD/Nano25Oct2019-v1/240000/9357AE30-8F22-7648-A955-AD977A9D3BFB.root
p1
aVroot://cms-xrdr.private.lo:2094//xrd/store/data/Run2017F/SingleElectron/NANOAOD/Nano25Oct2019-v1/240000/98AF4146-E615-9A49-B3BB-B60054DC4BFB.root
p2
a.