(lp0
Vroot://cms-xrdr.private.lo:2094//xrd/store/data/Run2017C/SingleElectron/NANOAOD/Nano25Oct2019-v1/20000/ED00A951-5183-8C4C-8CCE-CBACB8092E62.root
p1
aVroot://cms-xrdr.private.lo:2094//xrd/store/data/Run2017C/SingleElectron/NANOAOD/Nano25Oct2019-v1/20000/ED0E28E5-FDB0-2847-95B2-44C28257BFA4.root
p2
a.