(lp0
Vroot://cms-xrdr.private.lo:2094//xrd/store/data/Run2017E/SingleElectron/NANOAOD/Nano25Oct2019-v1/20000/FC69C6DD-F262-5341-8BD5-AB3B1562A58D.root
p1
aVroot://cms-xrdr.private.lo:2094//xrd/store/data/Run2017E/SingleElectron/NANOAOD/Nano25Oct2019-v1/20000/FE2E3060-EDAD-F140-A928-9E1953AAF086.root
p2
a.