(lp0
Vroot://cms-xrdr.private.lo:2094//xrd/store/data/Run2017B/SingleElectron/NANOAOD/Nano25Oct2019-v1/40000/9CA34F9A-D714-964F-B08E-E31009AF6ADF.root
p1
aVroot://cms-xrdr.private.lo:2094//xrd/store/data/Run2017B/SingleElectron/NANOAOD/Nano25Oct2019-v1/40000/BE43F768-A808-A844-B38B-59364FB65B2A.root
p2
a.