(lp0
Vroot://cms-xrdr.private.lo:2094//xrd/store/data/Run2017F/SingleElectron/NANOAOD/Nano25Oct2019-v1/240000/11F0729B-F4DF-6E4D-8F9A-A3720BAC5331.root
p1
aVroot://cms-xrdr.private.lo:2094//xrd/store/data/Run2017F/SingleElectron/NANOAOD/Nano25Oct2019-v1/240000/14589709-F91B-2343-92A7-3CF5A59B5234.root
p2
a.