(lp0
Vroot://cms-xrdr.private.lo:2094//xrd/store/data/Run2017E/SingleElectron/NANOAOD/Nano25Oct2019-v1/20000/A5A16DB0-822D-C84F-93F9-E611C7D6DF65.root
p1
aVroot://cms-xrdr.private.lo:2094//xrd/store/data/Run2017E/SingleElectron/NANOAOD/Nano25Oct2019-v1/20000/B012A28E-D4F3-D94C-B9DC-F5FD2E36BA69.root
p2
a.