(lp0
Vroot://cms-xrdr.private.lo:2094//xrd/store/data/Run2017E/SingleElectron/NANOAOD/Nano25Oct2019-v1/20000/923E27DF-6A4D-7347-84BD-51B77333E618.root
p1
aVroot://cms-xrdr.private.lo:2094//xrd/store/data/Run2017E/SingleElectron/NANOAOD/Nano25Oct2019-v1/20000/95179667-49BC-9F4E-9982-0C7345F0325F.root
p2
a.