(lp0
Vroot://cms-xrdr.private.lo:2094//xrd/store/data/Run2017E/SingleElectron/NANOAOD/Nano25Oct2019-v1/20000/30C55A14-31F5-A040-9E12-B22F0F3307E6.root
p1
aVroot://cms-xrdr.private.lo:2094//xrd/store/data/Run2017E/SingleElectron/NANOAOD/Nano25Oct2019-v1/20000/3156888F-6FB7-CF4B-9B5B-29F2776DC48E.root
p2
a.