(lp0
Vroot://cms-xrdr.private.lo:2094//xrd/store/data/Run2017D/SingleElectron/NANOAOD/Nano25Oct2019-v1/20000/69E02907-5AC2-124E-9975-0243CAE9AB34.root
p1
aVroot://cms-xrdr.private.lo:2094//xrd/store/data/Run2017D/SingleElectron/NANOAOD/Nano25Oct2019-v1/20000/6FF212AB-034B-F64A-9EDF-B6F5E0028FCC.root
p2
a.