(lp0
Vroot://cms-xrdr.private.lo:2094//xrd/store/data/Run2017F/SingleElectron/NANOAOD/Nano25Oct2019-v1/240000/529F59F0-9A54-3645-8C5E-D4C30E67FA8D.root
p1
aVroot://cms-xrdr.private.lo:2094//xrd/store/data/Run2017F/SingleElectron/NANOAOD/Nano25Oct2019-v1/240000/5DC5B12D-6F76-4746-8491-1A50703AEE49.root
p2
a.