(lp0
Vroot://cms-xrdr.private.lo:2094//xrd/store/data/Run2017C/SingleElectron/NANOAOD/Nano25Oct2019-v1/20000/0AAA0D07-310B-6D4C-A67E-1C1277824119.root
p1
aVroot://cms-xrdr.private.lo:2094//xrd/store/data/Run2017C/SingleElectron/NANOAOD/Nano25Oct2019-v1/20000/0DA844EC-3217-BC4A-8A5E-E28B61BDBE16.root
p2
a.