(lp0
Vroot://cms-xrdr.private.lo:2094//xrd/store/data/Run2017B/SingleElectron/NANOAOD/Nano25Oct2019-v1/20000/01B4A7F4-2BC7-8D40-86B3-B98BBFFA15E9.root
p1
aVroot://cms-xrdr.private.lo:2094//xrd/store/data/Run2017B/SingleElectron/NANOAOD/Nano25Oct2019-v1/20000/25CC64F4-19C7-084D-A720-1464D7CA0CE5.root
p2
a.