(lp0
Vroot://cms-xrdr.private.lo:2094//xrd/store/data/Run2017C/SingleElectron/NANOAOD/Nano25Oct2019-v1/20000/3181D153-728C-9741-BA8D-4408C1790EAA.root
p1
aVroot://cms-xrdr.private.lo:2094//xrd/store/data/Run2017C/SingleElectron/NANOAOD/Nano25Oct2019-v1/20000/31FFBBF4-9F86-BB41-8F63-91C32F519C13.root
p2
a.