(lp0
Vroot://cms-xrdr.private.lo:2094//xrd/store/data/Run2017C/SingleElectron/NANOAOD/Nano25Oct2019-v1/20000/845CF712-7539-5140-BBBB-7D4CA16E36AC.root
p1
aVroot://cms-xrdr.private.lo:2094//xrd/store/data/Run2017C/SingleElectron/NANOAOD/Nano25Oct2019-v1/20000/84BEADE9-3E2F-E14C-88A3-FDFFCFFAEF0D.root
p2
a.