(lp0
Vroot://cms-xrdr.private.lo:2094//xrd/store/data/Run2017C/SingleElectron/NANOAOD/Nano25Oct2019-v1/20000/66D71762-5519-A44F-BCBB-5EB26A9AA71D.root
p1
aVroot://cms-xrdr.private.lo:2094//xrd/store/data/Run2017C/SingleElectron/NANOAOD/Nano25Oct2019-v1/20000/67645A71-B393-DC4A-A236-ABA8AC2FB2B9.root
p2
a.