(lp0
Vroot://cms-xrdr.private.lo:2094//xrd/store/data/Run2017B/SingleElectron/NANOAOD/Nano25Oct2019-v1/40000/1A5F2311-E314-D84A-A721-3E51DB183B49.root
p1
aVroot://cms-xrdr.private.lo:2094//xrd/store/data/Run2017B/SingleElectron/NANOAOD/Nano25Oct2019-v1/40000/4B640CF1-D104-E44D-B5F0-DCB3B70637FB.root
p2
a.