(lp0
Vroot://cms-xrdr.private.lo:2094//xrd/store/data/Run2017E/SingleElectron/NANOAOD/Nano25Oct2019-v1/20000/4B6AE001-ED38-F149-8269-E239FDBCE928.root
p1
aVroot://cms-xrdr.private.lo:2094//xrd/store/data/Run2017E/SingleElectron/NANOAOD/Nano25Oct2019-v1/20000/54C95A5D-7BE1-F944-9FEE-2DF083FA3E1B.root
p2
a.