(lp0
Vroot://cms-xrdr.private.lo:2094//xrd/store/data/Run2017F/SingleElectron/NANOAOD/Nano25Oct2019-v1/240000/E55C6015-2021-6440-AA5B-D4DCF2EB633A.root
p1
aVroot://cms-xrdr.private.lo:2094//xrd/store/data/Run2017F/SingleElectron/NANOAOD/Nano25Oct2019-v1/240000/EA139FBA-4160-DB4C-89E1-F4D97B0BD1A9.root
p2
a.