(lp0
Vroot://cms-xrdr.private.lo:2094//xrd/store/data/Run2017C/SingleElectron/NANOAOD/Nano25Oct2019-v1/20000/BA4C1C92-62DF-7D46-A2A8-AA7D8225B6C4.root
p1
aVroot://cms-xrdr.private.lo:2094//xrd/store/data/Run2017C/SingleElectron/NANOAOD/Nano25Oct2019-v1/20000/BB0EE755-9889-274A-9744-79FF8D5F652F.root
p2
a.