(lp0
Vroot://cms-xrdr.private.lo:2094//xrd/store/data/Run2017F/SingleElectron/NANOAOD/Nano25Oct2019-v1/240000/45F54BAB-5251-B44F-93F7-11B30F2A1B23.root
p1
aVroot://cms-xrdr.private.lo:2094//xrd/store/data/Run2017F/SingleElectron/NANOAOD/Nano25Oct2019-v1/240000/48541CC0-9589-AF46-9D08-DD54FBFA5C06.root
p2
a.