(lp0
Vroot://cms-xrdr.private.lo:2094//xrd/store/data/Run2017B/SingleElectron/NANOAOD/Nano25Oct2019-v1/40000/4D4FAB65-1340-B944-B00E-DBEAD8612BC5.root
p1
aVroot://cms-xrdr.private.lo:2094//xrd/store/data/Run2017B/SingleElectron/NANOAOD/Nano25Oct2019-v1/40000/4F09E3F6-EDB3-9347-B9F3-C072ABC78E76.root
p2
a.