(lp0
Vroot://cms-xrdr.private.lo:2094//xrd/store/data/Run2017F/SingleElectron/NANOAOD/Nano25Oct2019-v1/240000/EA8F6DE7-2F99-9E4A-B073-015F410BB65D.root
p1
aVroot://cms-xrdr.private.lo:2094//xrd/store/data/Run2017F/SingleElectron/NANOAOD/Nano25Oct2019-v1/240000/F251F0F4-1EEE-4645-A1C6-42C71A26DEB9.root
p2
a.