(lp0
Vroot://cms-xrdr.private.lo:2094//xrd/store/data/Run2017E/SingleElectron/NANOAOD/Nano25Oct2019-v1/20000/56DC13BC-AC64-9D47-8432-1C4FC6C3253A.root
p1
aVroot://cms-xrdr.private.lo:2094//xrd/store/data/Run2017E/SingleElectron/NANOAOD/Nano25Oct2019-v1/20000/5926CB35-8E55-2E47-A269-B80C392BBC79.root
p2
a.