(lp0
Vroot://cms-xrdr.private.lo:2094//xrd/store/data/Run2017C/SingleElectron/NANOAOD/Nano25Oct2019-v1/20000/7B9D7F99-1EEF-044A-93ED-DD9A31182A7F.root
p1
aVroot://cms-xrdr.private.lo:2094//xrd/store/data/Run2017C/SingleElectron/NANOAOD/Nano25Oct2019-v1/20000/82C6DA8B-CF74-DB4A-AAB2-BA72C90CA44A.root
p2
a.