(lp0
Vroot://cms-xrdr.private.lo:2094//xrd/store/data/Run2017B/SingleElectron/NANOAOD/Nano25Oct2019-v1/40000/D0BEAF6B-5A22-5D4B-8C94-B5547588C683.root
p1
aVroot://cms-xrdr.private.lo:2094//xrd/store/data/Run2017B/SingleElectron/NANOAOD/Nano25Oct2019-v1/40000/D6762A8A-1B09-8D4C-802B-3F2567751A5D.root
p2
a.