(lp0
Vroot://cms-xrdr.private.lo:2094//xrd/store/data/Run2017B/SingleElectron/NANOAOD/Nano25Oct2019-v1/40000/4F1F1195-0ACF-AC4A-9A1C-F668B2D82E15.root
p1
aVroot://cms-xrdr.private.lo:2094//xrd/store/data/Run2017B/SingleElectron/NANOAOD/Nano25Oct2019-v1/40000/555A8FD8-F651-4244-90CD-2E9ED3F29DCD.root
p2
a.