(lp0
Vroot://cms-xrdr.private.lo:2094//xrd/store/data/Run2017C/SingleElectron/NANOAOD/Nano25Oct2019-v1/20000/29EA9C7E-98A9-0844-ADD0-2BA1D9FA9B82.root
p1
aVroot://cms-xrdr.private.lo:2094//xrd/store/data/Run2017C/SingleElectron/NANOAOD/Nano25Oct2019-v1/20000/2E6410C1-4497-374D-86FB-BA012372AB3C.root
p2
a.