(lp0
Vroot://cms-xrdr.private.lo:2094//xrd/store/data/Run2017B/SingleElectron/NANOAOD/Nano25Oct2019-v1/20000/9F7C3AE6-30E5-304F-9A95-19816136354F.root
p1
aVroot://cms-xrdr.private.lo:2094//xrd/store/data/Run2017B/SingleElectron/NANOAOD/Nano25Oct2019-v1/40000/06CBC0D3-01B5-F24D-A0CB-CF3B33BAA387.root
p2
a.