(lp0
Vroot://cms-xrdr.private.lo:2094//xrd/store/data/Run2017E/SingleElectron/NANOAOD/Nano25Oct2019-v1/20000/2E38B8A5-9977-8145-B511-F754EFDB65B1.root
p1
aVroot://cms-xrdr.private.lo:2094//xrd/store/data/Run2017E/SingleElectron/NANOAOD/Nano25Oct2019-v1/20000/2E4BD5AD-DF6D-FC44-971F-D3FDF0116518.root
p2
a.