(lp0
Vroot://cms-xrdr.private.lo:2094//xrd/store/data/Run2017F/SingleElectron/NANOAOD/Nano25Oct2019-v1/240000/DACAE033-2364-384D-B4CE-96F0B0DE5826.root
p1
aVroot://cms-xrdr.private.lo:2094//xrd/store/data/Run2017F/SingleElectron/NANOAOD/Nano25Oct2019-v1/240000/DB833D8E-1C0C-E747-99A3-FFCC01F5A084.root
p2
a.