(lp0
Vroot://cms-xrdr.private.lo:2094//xrd/store/data/Run2017E/SingleElectron/NANOAOD/Nano25Oct2019-v1/20000/CC25C01E-64E5-F342-9BC9-52CFE443B54F.root
p1
aVroot://cms-xrdr.private.lo:2094//xrd/store/data/Run2017E/SingleElectron/NANOAOD/Nano25Oct2019-v1/20000/D49DDAE9-58C9-D64E-BDC6-AA7EDB7659F0.root
p2
a.