(lp0
Vroot://cms-xrdr.private.lo:2094//xrd/store/mc/RunIIFall17NanoAODv7/GluGluToHHTo2B2VTo2L2Nu_node_SM_13TeV-madgraph_correctedcfg/NANOAODSIM/PU2017_12Apr2018_Nano02Apr2020_102X_mc2017_realistic_v8-v1/110000/630BD178-3DF9-9E4B-9AB5-A1FD7AE3EB09.root
p1
a.