(lp0
Vroot://cms-xrdr.private.lo:2094//xrd/store/mc/RunIIFall17NanoAODv7/TTToSemiLeptonic_TuneCP5_PSweights_13TeV-powheg-pythia8/NANOAODSIM/PU2017_12Apr2018_Nano02Apr2020_102X_mc2017_realistic_v8-v1/70000/30BAB6A6-2216-CB48-82E4-A4594D118A4B.root
p1
aVroot://cms-xrdr.private.lo:2094//xrd/store/mc/RunIIFall17NanoAODv7/TTToSemiLeptonic_TuneCP5_PSweights_13TeV-powheg-pythia8/NANOAODSIM/PU2017_12Apr2018_Nano02Apr2020_102X_mc2017_realistic_v8-v1/70000/3D32DFE0-27C8-3840-BAB8-F88DB7976FED.root
p2
aVroot://cms-xrdr.private.lo:2094//xrd/store/mc/RunIIFall17NanoAODv7/TTToSemiLeptonic_TuneCP5_PSweights_13TeV-powheg-pythia8/NANOAODSIM/PU2017_12Apr2018_Nano02Apr2020_102X_mc2017_realistic_v8-v1/70000/4A079B33-A67F-DC42-A675-05687E2505A5.root
p3
aVroot://cms-xrdr.private.lo:2094//xrd/store/mc/RunIIFall17NanoAODv7/TTToSemiLeptonic_TuneCP5_PSweights_13TeV-powheg-pythia8/NANOAODSIM/PU2017_12Apr2018_Nano02Apr2020_102X_mc2017_realistic_v8-v1/70000/4A2DED51-6236-2341-BDB3-FA30D3560664.root
p4
a.