(lp0
Vroot://cms-xrdr.private.lo:2094//xrd/store/mc/RunIIFall17NanoAODv7/TTToSemiLeptonic_TuneCP5_PSweights_13TeV-powheg-pythia8/NANOAODSIM/PU2017_12Apr2018_Nano02Apr2020_102X_mc2017_realistic_v8-v1/100000/9D232D8F-430C-7540-B343-668FD569285A.root
p1
aVroot://cms-xrdr.private.lo:2094//xrd/store/mc/RunIIFall17NanoAODv7/TTToSemiLeptonic_TuneCP5_PSweights_13TeV-powheg-pythia8/NANOAODSIM/PU2017_12Apr2018_Nano02Apr2020_102X_mc2017_realistic_v8-v1/100000/9E7ADA4A-DBC5-5446-9897-D62E803685E3.root
p2
aVroot://cms-xrdr.private.lo:2094//xrd/store/mc/RunIIFall17NanoAODv7/TTToSemiLeptonic_TuneCP5_PSweights_13TeV-powheg-pythia8/NANOAODSIM/PU2017_12Apr2018_Nano02Apr2020_102X_mc2017_realistic_v8-v1/100000/A0A6431F-567C-A744-B1BB-46280C568CCC.root
p3
aVroot://cms-xrdr.private.lo:2094//xrd/store/mc/RunIIFall17NanoAODv7/TTToSemiLeptonic_TuneCP5_PSweights_13TeV-powheg-pythia8/NANOAODSIM/PU2017_12Apr2018_Nano02Apr2020_102X_mc2017_realistic_v8-v1/100000/AC1B6430-D5B1-BF4B-A96C-0861E7C87CE4.root
p4
a.