(lp0
Vroot://cms-xrdr.private.lo:2094//xrd/store/mc/RunIIFall17NanoAODv7/WJetsToLNu_TuneCP5_13TeV-madgraphMLM-pythia8/NANOAODSIM/PU2017_12Apr2018_Nano02Apr2020_102X_mc2017_realistic_v8_ext1-v1/70000/AA81C5E2-D890-3348-9E19-03F9519768F7.root
p1
a.