(lp0
Vroot://cms-xrdr.private.lo:2094//xrd/store/data/Run2017D/SingleElectron/NANOAOD/Nano25Oct2019-v1/20000/0191F1A6-7F5C-7445-BF9A-CEDCD903AA51.root
p1
aVroot://cms-xrdr.private.lo:2094//xrd/store/data/Run2017D/SingleElectron/NANOAOD/Nano25Oct2019-v1/20000/066FA089-A988-9343-A1C7-2B16E19DA00A.root
p2
a.