(lp0
Vroot://cms-xrdr.private.lo:2094//xrd/store/data/Run2017F/SingleElectron/NANOAOD/Nano25Oct2019-v1/240000/A6DFD0C4-B394-EC44-8A85-CFC5DD8BA2FB.root
p1
aVroot://cms-xrdr.private.lo:2094//xrd/store/data/Run2017F/SingleElectron/NANOAOD/Nano25Oct2019-v1/240000/ABA7A43D-94A9-0541-9DE0-8F42FB892417.root
p2
a.