(lp0
Vroot://cms-xrdr.private.lo:2094//xrd/store/data/Run2017C/SingleElectron/NANOAOD/Nano25Oct2019-v1/20000/86091B82-D8E4-5C45-9AC3-FC6158E8BF07.root
p1
aVroot://cms-xrdr.private.lo:2094//xrd/store/data/Run2017C/SingleElectron/NANOAOD/Nano25Oct2019-v1/20000/87B0C746-1F05-D845-9D7C-78E1D0DD89F0.root
p2
a.