(lp0
Vroot://cms-xrdr.private.lo:2094//xrd/store/data/Run2017D/SingleMuon/NANOAOD/Nano25Oct2019-v1/40000/E2E45B6D-CAEC-944B-A859-8561F68EDD7F.root
p1
aVroot://cms-xrdr.private.lo:2094//xrd/store/data/Run2017D/SingleMuon/NANOAOD/Nano25Oct2019-v1/40000/F2ACF5BB-DD8A-5A4A-BB7B-B46D8EBED4D4.root
p2
a.