(lp0
Vroot://cms-xrdr.private.lo:2094//xrd/store/data/Run2017D/SingleMuon/NANOAOD/Nano25Oct2019-v1/40000/AB4B9AD1-27BA-264D-AAF6-811D1F812CA7.root
p1
aVroot://cms-xrdr.private.lo:2094//xrd/store/data/Run2017D/SingleMuon/NANOAOD/Nano25Oct2019-v1/40000/B0A19F27-54E2-4343-91BD-BCFB5E88DF5B.root
p2
a.