(lp0
Vroot://cms-xrdr.private.lo:2094//xrd/store/data/Run2017B/SingleMuon/NANOAOD/Nano25Oct2019-v1/40000/AA6BBB35-FB22-BD44-AF45-A99DE6427B9A.root
p1
aVroot://cms-xrdr.private.lo:2094//xrd/store/data/Run2017B/SingleMuon/NANOAOD/Nano25Oct2019-v1/40000/B15CBA24-E154-604F-9B35-D9B28734C7D0.root
p2
a.