(lp0
Vroot://cms-xrdr.private.lo:2094//xrd/store/data/Run2017D/DoubleMuon/NANOAOD/Nano1June2019-v1/30000/20551D61-642D-914B-952C-0F733F41BBEB.root
p1
aVroot://cms-xrdr.private.lo:2094//xrd/store/data/Run2017D/DoubleMuon/NANOAOD/Nano1June2019-v1/30000/27BAD580-D6FE-A447-8CA6-BED4A4F4797C.root
p2
a.