(lp0
Vroot://cms-xrdr.private.lo:2094//xrd/store/data/Run2017E/SingleMuon/NANOAOD/Nano25Oct2019-v1/30000/10F4586D-A90D-3A40-A435-2FA0F4A64E3C.root
p1
aVroot://cms-xrdr.private.lo:2094//xrd/store/data/Run2017E/SingleMuon/NANOAOD/Nano25Oct2019-v1/30000/111B2398-535F-4940-BAF6-9A45F4E32C6A.root
p2
a.