(lp0
Vroot://cms-xrdr.private.lo:2094//xrd/store/data/Run2017E/SingleMuon/NANOAOD/Nano25Oct2019-v1/30000/C720EAAC-18FF-1F42-90A1-BCAE87823D7E.root
p1
aVroot://cms-xrdr.private.lo:2094//xrd/store/data/Run2017E/SingleMuon/NANOAOD/Nano25Oct2019-v1/30000/C8BCC91F-DD0A-9E40-A094-31798CF69281.root
p2
a.