(lp0
Vroot://cms-xrdr.private.lo:2094//xrd/store/data/Run2017E/SingleElectron/NANOAOD/Nano25Oct2019-v1/20000/6A4AA9A9-3DCC-3F4C-85FB-41F84566BCCC.root
p1
aVroot://cms-xrdr.private.lo:2094//xrd/store/data/Run2017E/SingleElectron/NANOAOD/Nano25Oct2019-v1/20000/6AB48767-AFCD-5243-ABB0-E57D95F63810.root
p2
a.