(lp0
Vroot://cms-xrdr.private.lo:2094//xrd/store/data/Run2017C/SingleElectron/NANOAOD/Nano25Oct2019-v1/20000/EF2A3328-4F92-D949-A816-AE6F6CB7EF37.root
p1
aVroot://cms-xrdr.private.lo:2094//xrd/store/data/Run2017C/SingleElectron/NANOAOD/Nano25Oct2019-v1/20000/F0F52D37-0503-9240-88BC-38FBC89102D2.root
p2
a.