(lp0
Vroot://cms-xrdr.private.lo:2094//xrd/store/data/Run2017F/DoubleMuon/NANOAOD/Nano1June2019-v1/30000/B1DCD17F-D6FF-E24B-B8FD-8EBB8BB0567B.root
p1
aVroot://cms-xrdr.private.lo:2094//xrd/store/data/Run2017F/DoubleMuon/NANOAOD/Nano1June2019-v1/30000/C646640C-5141-1348-BBC2-46687A2AB4BF.root
p2
a.