(lp0
Vroot://cms-xrdr.private.lo:2094//xrd/store/data/Run2017F/SingleElectron/NANOAOD/Nano25Oct2019-v1/230000/DB242ED4-E86A-9640-8C75-DCCF1A18757F.root
p1
aVroot://cms-xrdr.private.lo:2094//xrd/store/data/Run2017F/SingleElectron/NANOAOD/Nano25Oct2019-v1/230000/E8CB69C3-ADB4-9B4A-B415-DC7C389353F9.root
p2
a.