(lp0
Vroot://cms-xrdr.private.lo:2094//xrd/store/data/Run2017F/SingleMuon/NANOAOD/Nano25Oct2019-v1/30000/83458A32-38BD-1D46-8D9C-75EC7CE6E47C.root
p1
aVroot://cms-xrdr.private.lo:2094//xrd/store/data/Run2017F/SingleMuon/NANOAOD/Nano25Oct2019-v1/30000/8448FD1A-72F1-0A4F-9FB2-ECB3F14AAAB0.root
p2
a.