(lp0
Vroot://cms-xrdr.private.lo:2094//xrd/store/data/Run2017C/DoubleMuon/NANOAOD/Nano1June2019-v1/70000/CA46C40F-E2A8-714A-8139-6CB224F4ACAF.root
p1
aVroot://cms-xrdr.private.lo:2094//xrd/store/data/Run2017C/DoubleMuon/NANOAOD/Nano1June2019-v1/70000/CBCC6C41-FD35-C744-A06D-62A5A56BE814.root
p2
a.