(lp0
Vroot://cms-xrdr.private.lo:2094//xrd/store/data/Run2017C/SingleMuon/NANOAOD/Nano25Oct2019-v1/230000/D99DC8EF-5A39-AC48-9580-4F3B853B75E8.root
p1
aVroot://cms-xrdr.private.lo:2094//xrd/store/data/Run2017C/SingleMuon/NANOAOD/Nano25Oct2019-v1/230000/DCD5D9F7-6412-4F48-954F-9DAF9810C7C4.root
p2
a.