(lp0
Vroot://cms-xrdr.private.lo:2094//xrd/store/data/Run2017F/DoubleMuon/NANOAOD/Nano1June2019-v1/40000/8A97B8EC-6460-B044-A779-7CF83DDAE1C2.root
p1
aVroot://cms-xrdr.private.lo:2094//xrd/store/data/Run2017F/DoubleMuon/NANOAOD/Nano1June2019-v1/40000/8D97231C-0AFC-4644-8EBA-4DF2A0183029.root
p2
a.