(lp0
Vroot://cms-xrdr.private.lo:2094//xrd/store/data/Run2017C/DoubleMuon/NANOAOD/Nano1June2019-v1/70000/EC9CB398-A444-354E-9728-07A35D93F0A5.root
p1
aVroot://cms-xrdr.private.lo:2094//xrd/store/data/Run2017C/DoubleMuon/NANOAOD/Nano1June2019-v1/70000/EDFE58C4-2BA4-E543-AE9B-A935FBDA78A7.root
p2
a.