(lp0
Vroot://cms-xrdr.private.lo:2094//xrd/store/data/Run2017C/SingleMuon/NANOAOD/Nano25Oct2019-v1/230000/32EAB8BE-82DD-464B-8D9A-A98E1C9C4394.root
p1
aVroot://cms-xrdr.private.lo:2094//xrd/store/data/Run2017C/SingleMuon/NANOAOD/Nano25Oct2019-v1/230000/34561D99-7059-3445-96AD-8BC2228D51C9.root
p2
a.