(lp0
Vroot://cms-xrdr.private.lo:2094//xrd/store/data/Run2017D/DoubleMuon/NANOAOD/Nano1June2019-v1/30000/5B9BC02E-4FB9-B142-9E00-B216146A285E.root
p1
aVroot://cms-xrdr.private.lo:2094//xrd/store/data/Run2017D/DoubleMuon/NANOAOD/Nano1June2019-v1/30000/78DEB2A5-5DA6-944A-A8E6-5458FEC6D697.root
p2
a.