(lp0
Vroot://cms-xrdr.private.lo:2094//xrd/store/data/Run2017F/DoubleMuon/NANOAOD/Nano1June2019-v1/40000/4E4AD05C-3A94-6840-92FD-3B577D615CF7.root
p1
aVroot://cms-xrdr.private.lo:2094//xrd/store/data/Run2017F/DoubleMuon/NANOAOD/Nano1June2019-v1/40000/4F237251-80AE-CE42-A3BF-A7EBCAF32BBB.root
p2
a.