(lp0
Vroot://cms-xrdr.private.lo:2094//xrd/store/data/Run2017E/SingleMuon/NANOAOD/Nano25Oct2019-v1/30000/EAE1BEEA-6ADB-5447-8AF4-B01B1C9EE4F4.root
p1
aVroot://cms-xrdr.private.lo:2094//xrd/store/data/Run2017E/SingleMuon/NANOAOD/Nano25Oct2019-v1/30000/EF6D86AB-4924-784F-86D8-BFD5303FDD6E.root
p2
a.