(lp0
Vroot://cms-xrdr.private.lo:2094//xrd/store/data/Run2017F/SingleMuon/NANOAOD/Nano25Oct2019-v1/30000/EF36552B-C248-A745-B111-F8515F826FB9.root
p1
aVroot://cms-xrdr.private.lo:2094//xrd/store/data/Run2017F/SingleMuon/NANOAOD/Nano25Oct2019-v1/30000/F09953BD-116F-4E4F-A561-B4F19B8FAFA0.root
p2
a.