(lp0
Vroot://cms-xrdr.private.lo:2094//xrd/store/data/Run2017E/SingleMuon/NANOAOD/Nano25Oct2019-v1/260000/F40BF848-7700-4144-AE42-E1FC23E42FE6.root
p1
aVroot://cms-xrdr.private.lo:2094//xrd/store/data/Run2017E/SingleMuon/NANOAOD/Nano25Oct2019-v1/260000/F5D0E19D-08E9-1948-B38E-7DBA2909D1B0.root
p2
a.