(lp0
Vroot://cms-xrdr.private.lo:2094//xrd/store/data/Run2017C/SingleElectron/NANOAOD/Nano25Oct2019-v1/20000/08B1EEFF-B698-A449-9980-8A15DF57B3B0.root
p1
aVroot://cms-xrdr.private.lo:2094//xrd/store/data/Run2017C/SingleElectron/NANOAOD/Nano25Oct2019-v1/20000/0A8FFCC6-74D1-9741-BF86-214A65B64C40.root
p2
a.