(lp0
Vroot://cms-xrdr.private.lo:2094//xrd/store/data/Run2017F/SingleMuon/NANOAOD/Nano25Oct2019-v1/30000/78CCBCAF-7D7E-9A42-B256-E62728A98537.root
p1
aVroot://cms-xrdr.private.lo:2094//xrd/store/data/Run2017F/SingleMuon/NANOAOD/Nano25Oct2019-v1/30000/7ADBDFBD-3CA5-AB42-9916-113A3F46A5EE.root
p2
a.