(lp0
Vroot://cms-xrdr.private.lo:2094//xrd/store/data/Run2017F/SingleElectron/NANOAOD/Nano25Oct2019-v1/240000/4A4B6075-7670-D24A-89D0-0D8AD434E553.root
p1
aVroot://cms-xrdr.private.lo:2094//xrd/store/data/Run2017F/SingleElectron/NANOAOD/Nano25Oct2019-v1/240000/4CAD7802-B3B2-3647-B2B8-003F0416A3CE.root
p2
a.