(lp0
Vroot://cms-xrdr.private.lo:2094//xrd/store/data/Run2017E/SingleMuon/NANOAOD/Nano25Oct2019-v1/30000/4CFACB7D-B934-514E-B5CA-9C89B18C1F7B.root
p1
aVroot://cms-xrdr.private.lo:2094//xrd/store/data/Run2017E/SingleMuon/NANOAOD/Nano25Oct2019-v1/30000/572B7ACF-AD35-9940-9FB9-BB2383B5BE89.root
p2
a.