(lp0
Vroot://cms-xrdr.private.lo:2094//xrd/store/data/Run2017F/SingleMuon/NANOAOD/Nano25Oct2019-v1/30000/8C328D61-6B3D-F241-BAD3-D69C12DB0ACA.root
p1
aVroot://cms-xrdr.private.lo:2094//xrd/store/data/Run2017F/SingleMuon/NANOAOD/Nano25Oct2019-v1/30000/8C5D90BD-C795-FD42-B4CF-BBAE75CB7B64.root
p2
a.