(lp0
Vroot://cms-xrdr.private.lo:2094//xrd/store/data/Run2017F/SingleElectron/NANOAOD/Nano25Oct2019-v1/240000/B93834F7-D8B5-C543-8409-206E8E105673.root
p1
aVroot://cms-xrdr.private.lo:2094//xrd/store/data/Run2017F/SingleElectron/NANOAOD/Nano25Oct2019-v1/240000/C2DE0C53-BAF3-6640-B5E5-54A948AE2B4B.root
p2
a.