(lp0
Vroot://cms-xrdr.private.lo:2094//xrd/store/data/Run2017C/SingleElectron/NANOAOD/Nano25Oct2019-v1/20000/BDA33FA1-D7CD-C241-958C-35D2B9699977.root
p1
aVroot://cms-xrdr.private.lo:2094//xrd/store/data/Run2017C/SingleElectron/NANOAOD/Nano25Oct2019-v1/20000/C12CD7F1-9A7B-B242-A6A5-290027BCC4EC.root
p2
a.