(lp0
Vroot://cms-xrdr.private.lo:2094//xrd/store/data/Run2017F/SingleElectron/NANOAOD/Nano25Oct2019-v1/240000/B3783E21-5306-5F48-A19E-6EF90F63EFDF.root
p1
aVroot://cms-xrdr.private.lo:2094//xrd/store/data/Run2017F/SingleElectron/NANOAOD/Nano25Oct2019-v1/240000/B66918E8-FE6B-CA42-BEFC-841B088CA833.root
p2
a.