(lp0
Vroot://cms-xrdr.private.lo:2094//xrd/store/data/Run2017F/SingleMuon/NANOAOD/Nano25Oct2019-v1/30000/220B8475-8872-9846-82D9-44BCD2E877A3.root
p1
aVroot://cms-xrdr.private.lo:2094//xrd/store/data/Run2017F/SingleMuon/NANOAOD/Nano25Oct2019-v1/30000/22FB1C8A-0BBC-AD4D-980D-3067B8C53CE2.root
p2
a.