(lp0
Vroot://cms-xrdr.private.lo:2094//xrd/store/data/Run2017F/SingleMuon/NANOAOD/Nano25Oct2019-v1/30000/638A4842-FCEB-664A-BEC4-2DE6EC7E3750.root
p1
aVroot://cms-xrdr.private.lo:2094//xrd/store/data/Run2017F/SingleMuon/NANOAOD/Nano25Oct2019-v1/30000/6402A064-B0CE-A440-8A65-F575C43E04EC.root
p2
a.