(lp0
Vroot://cms-xrdr.private.lo:2094//xrd/store/data/Run2017F/SingleMuon/NANOAOD/Nano25Oct2019-v1/30000/07E13E8B-27FE-8045-95CE-94CE65A6260E.root
p1
aVroot://cms-xrdr.private.lo:2094//xrd/store/data/Run2017F/SingleMuon/NANOAOD/Nano25Oct2019-v1/30000/091B03BE-7159-5A4B-AC90-4AC7DA6B4B1B.root
p2
a.