(lp0
Vroot://cms-xrdr.private.lo:2094//xrd/store/data/Run2017D/DoubleMuon/NANOAOD/Nano1June2019-v1/30000/34F7CB79-9462-2443-97BE-963D997C21AF.root
p1
aVroot://cms-xrdr.private.lo:2094//xrd/store/data/Run2017D/DoubleMuon/NANOAOD/Nano1June2019-v1/30000/424FD15D-4CF3-B24D-98BF-E9A08D1F53D3.root
p2
a.