(lp0
Vroot://cms-xrdr.private.lo:2094//xrd/store/data/Run2017D/SingleElectron/NANOAOD/Nano25Oct2019-v1/20000/07DFEFDA-1333-334B-BB5C-1753281BCD74.root
p1
aVroot://cms-xrdr.private.lo:2094//xrd/store/data/Run2017D/SingleElectron/NANOAOD/Nano25Oct2019-v1/20000/1544E5D4-B99B-4246-89CB-D2EDEAE5A527.root
p2
a.