(lp0
Vroot://cms-xrdr.private.lo:2094//xrd/store/data/Run2017F/DoubleMuon/NANOAOD/Nano1June2019-v1/40000/A283931D-FCA1-D847-91CB-D6F0458FEBB6.root
p1
aVroot://cms-xrdr.private.lo:2094//xrd/store/data/Run2017F/DoubleMuon/NANOAOD/Nano1June2019-v1/40000/A377A64F-6612-854C-97B1-68DD3E4B91AF.root
p2
a.