(lp0
Vroot://cms-xrdr.private.lo:2094//xrd/store/data/Run2017B/SingleMuon/NANOAOD/Nano25Oct2019-v1/40000/CE7F63C0-907D-E64E-BA39-B8DDCF3CA13B.root
p1
aVroot://cms-xrdr.private.lo:2094//xrd/store/data/Run2017B/SingleMuon/NANOAOD/Nano25Oct2019-v1/40000/CECD6969-E43E-D545-8BBE-C37F5EDE8DB3.root
p2
a.