(lp0
Vroot://cms-xrdr.private.lo:2094//xrd/store/data/Run2017F/SingleElectron/NANOAOD/Nano25Oct2019-v1/240000/2817500A-A1D8-4A41-9AD6-A744AE7FFC3F.root
p1
aVroot://cms-xrdr.private.lo:2094//xrd/store/data/Run2017F/SingleElectron/NANOAOD/Nano25Oct2019-v1/240000/285EB0B1-417A-5D41-8C6B-24EBE233D296.root
p2
a.