(lp0
Vroot://cms-xrdr.private.lo:2094//xrd/store/data/Run2017C/SingleElectron/NANOAOD/Nano25Oct2019-v1/20000/5FA68FE2-E40F-4544-91CE-F18F4EF5B733.root
p1
aVroot://cms-xrdr.private.lo:2094//xrd/store/data/Run2017C/SingleElectron/NANOAOD/Nano25Oct2019-v1/20000/60741294-F0A7-1340-BD61-07DCE227EBC4.root
p2
a.