(lp0
Vroot://cms-xrdr.private.lo:2094//xrd/store/data/Run2017F/DoubleMuon/NANOAOD/Nano1June2019-v1/40000/7ECD4F4B-47FE-F742-BC0C-8DB1D1088CE3.root
p1
aVroot://cms-xrdr.private.lo:2094//xrd/store/data/Run2017F/DoubleMuon/NANOAOD/Nano1June2019-v1/40000/834D33D6-57CE-884D-9694-A58FC74C7628.root
p2
a.