(lp0
Vroot://cms-xrdr.private.lo:2094//xrd/store/data/Run2017B/SingleMuon/NANOAOD/Nano25Oct2019-v1/40000/EB69A32C-C919-4B4E-A131-8E376AC0C815.root
p1
aVroot://cms-xrdr.private.lo:2094//xrd/store/data/Run2017B/SingleMuon/NANOAOD/Nano25Oct2019-v1/40000/EE58000B-9A23-9A4D-BBB5-275C99722BC2.root
p2
a.