(lp0
Vroot://cms-xrdr.private.lo:2094//xrd/store/data/Run2017F/SingleMuon/NANOAOD/Nano25Oct2019-v1/30000/D9AD75AB-9A91-434A-8F8E-751F3C94562C.root
p1
aVroot://cms-xrdr.private.lo:2094//xrd/store/data/Run2017F/SingleMuon/NANOAOD/Nano25Oct2019-v1/30000/DA2EDE16-AAE8-0449-96EC-1B31F35C6B14.root
p2
a.