(lp0
Vroot://cms-xrdr.private.lo:2094//xrd/store/data/Run2017C/DoubleMuon/NANOAOD/Nano1June2019-v1/70000/53F63EAA-74D0-1D4E-8CC9-3FA24EAA69F7.root
p1
aVroot://cms-xrdr.private.lo:2094//xrd/store/data/Run2017C/DoubleMuon/NANOAOD/Nano1June2019-v1/70000/589BBC6E-6B20-0340-BB8A-C12E6990A7D8.root
p2
a.