(lp0
Vroot://cms-xrdr.private.lo:2094//xrd/store/data/Run2017E/DoubleMuon/NANOAOD/Nano1June2019-v1/30000/DF7A52FE-9728-5541-B846-B9756C6BFCBE.root
p1
aVroot://cms-xrdr.private.lo:2094//xrd/store/data/Run2017E/DoubleMuon/NANOAOD/Nano1June2019-v1/30000/F5E684DC-6D72-BA40-9504-51EB760FCFF1.root
p2
a.