(lp0
Vroot://cms-xrdr.private.lo:2094//xrd/store/data/Run2017C/SingleMuon/NANOAOD/Nano25Oct2019-v1/230000/E66989C3-B745-4A46-8C68-9536834614EE.root
p1
aVroot://cms-xrdr.private.lo:2094//xrd/store/data/Run2017C/SingleMuon/NANOAOD/Nano25Oct2019-v1/230000/E8D66DB1-307A-F44B-AFD9-EBAF6C225D6D.root
p2
a.