(lp0
Vroot://cms-xrdr.private.lo:2094//xrd/store/data/Run2017F/SingleMuon/NANOAOD/Nano25Oct2019-v1/30000/80A1CA5D-6981-9C4C-9B1A-4A98A67CF850.root
p1
aVroot://cms-xrdr.private.lo:2094//xrd/store/data/Run2017F/SingleMuon/NANOAOD/Nano25Oct2019-v1/30000/8136C7A3-31A0-194E-95A0-8D046DB94423.root
p2
a.