(lp0
Vroot://cms-xrdr.private.lo:2094//xrd/store/data/Run2017B/SingleMuon/NANOAOD/Nano25Oct2019-v1/40000/9427EEE6-AD66-6948-961B-8490933DA8FD.root
p1
aVroot://cms-xrdr.private.lo:2094//xrd/store/data/Run2017B/SingleMuon/NANOAOD/Nano25Oct2019-v1/40000/94A8BE7C-BC24-5744-A711-767061D7C64A.root
p2
a.