(lp0
Vroot://cms-xrdr.private.lo:2094//xrd/store/data/Run2017E/SingleMuon/NANOAOD/Nano25Oct2019-v1/30000/350977A8-891F-9A46-9881-DE3B9EEB47A4.root
p1
aVroot://cms-xrdr.private.lo:2094//xrd/store/data/Run2017E/SingleMuon/NANOAOD/Nano25Oct2019-v1/30000/3B5515CA-BCB3-BF47-9CBC-AB6101362635.root
p2
a.