(lp0
Vroot://cms-xrdr.private.lo:2094//xrd/store/data/Run2017E/DoubleMuon/NANOAOD/Nano1June2019-v1/30000/99F88332-B7F1-B349-90E7-119F3A4C72EF.root
p1
aVroot://cms-xrdr.private.lo:2094//xrd/store/data/Run2017E/DoubleMuon/NANOAOD/Nano1June2019-v1/30000/9DB54BF1-6847-3E42-A28B-DCDB07E5FBC8.root
p2
a.