(lp0
Vroot://cms-xrdr.private.lo:2094//xrd/store/data/Run2017F/SingleMuon/NANOAOD/Nano25Oct2019-v1/30000/C37D1C06-5C3D-2345-80A6-FF91457BFE7D.root
p1
aVroot://cms-xrdr.private.lo:2094//xrd/store/data/Run2017F/SingleMuon/NANOAOD/Nano25Oct2019-v1/30000/C54E3B26-0785-C24C-B515-02EEAE19B001.root
p2
a.