(lp0
Vroot://cms-xrdr.private.lo:2094//xrd/store/data/Run2017E/SingleMuon/NANOAOD/Nano25Oct2019-v1/260000/2106E91A-AFCE-9A47-9112-8C29C7A8AA04.root
p1
aVroot://cms-xrdr.private.lo:2094//xrd/store/data/Run2017E/SingleMuon/NANOAOD/Nano25Oct2019-v1/260000/2B517FEE-26D5-AA41-825B-070F4F6B27A0.root
p2
a.