(lp0
Vroot://cms-xrdr.private.lo:2094//xrd/store/data/Run2017C/SingleMuon/NANOAOD/Nano25Oct2019-v1/230000/B02A54D8-783D-D747-BE7F-75039CCE6F9C.root
p1
aVroot://cms-xrdr.private.lo:2094//xrd/store/data/Run2017C/SingleMuon/NANOAOD/Nano25Oct2019-v1/230000/B3075A16-D1D5-7A47-AE93-FA2570FD7FF8.root
p2
a.