(lp0
Vroot://cms-xrdr.private.lo:2094//xrd/store/data/Run2017E/SingleMuon/NANOAOD/Nano25Oct2019-v1/30000/57F5058E-FD2A-6049-AE07-5B706CF64AB4.root
p1
aVroot://cms-xrdr.private.lo:2094//xrd/store/data/Run2017E/SingleMuon/NANOAOD/Nano25Oct2019-v1/30000/5A6342CE-59E2-5E49-8EB8-99ABA22B6BC7.root
p2
a.