(lp0
Vroot://cms-xrdr.private.lo:2094//xrd/store/data/Run2017D/SingleElectron/NANOAOD/Nano25Oct2019-v1/20000/9B66CE7F-DC55-DB45-BA52-6E0475A3BFB8.root
p1
aVroot://cms-xrdr.private.lo:2094//xrd/store/data/Run2017D/SingleElectron/NANOAOD/Nano25Oct2019-v1/20000/9EA669AF-B710-8D48-93F6-2606CDC4E882.root
p2
a.