(lp0
Vroot://cms-xrdr.private.lo:2094//xrd/store/data/Run2017F/SingleMuon/NANOAOD/Nano25Oct2019-v1/30000/39EA94AC-2516-3948-95CA-A11DA6C4C20E.root
p1
aVroot://cms-xrdr.private.lo:2094//xrd/store/data/Run2017F/SingleMuon/NANOAOD/Nano25Oct2019-v1/30000/3ABB25E9-DA2C-5342-9632-478840F1DAC3.root
p2
a.