(lp0
Vroot://cms-xrdr.private.lo:2094//xrd/store/data/Run2017D/SingleElectron/NANOAOD/Nano25Oct2019-v1/20000/30E9ABA0-C99A-B54C-AE1F-ED204CA6F340.root
p1
aVroot://cms-xrdr.private.lo:2094//xrd/store/data/Run2017D/SingleElectron/NANOAOD/Nano25Oct2019-v1/20000/3132C912-3D80-2F45-9E93-EFC2540937C2.root
p2
a.