(lp0
Vroot://cms-xrdr.private.lo:2094//xrd/store/data/Run2017B/SingleMuon/NANOAOD/Nano25Oct2019-v1/40000/1C2E89C6-4BC7-8044-AB59-418D954D4CC5.root
p1
aVroot://cms-xrdr.private.lo:2094//xrd/store/data/Run2017B/SingleMuon/NANOAOD/Nano25Oct2019-v1/40000/20844237-1C78-1C4E-B1BA-EE51C7DC6F46.root
p2
a.