(lp0
Vroot://cms-xrdr.private.lo:2094//xrd/store/data/Run2017E/SingleMuon/NANOAOD/Nano25Oct2019-v1/30000/E5BF35E3-51E3-EE4C-8200-B085EB8CE33D.root
p1
aVroot://cms-xrdr.private.lo:2094//xrd/store/data/Run2017E/SingleMuon/NANOAOD/Nano25Oct2019-v1/30000/E78DD939-456C-FC44-80C9-AFF9217BB7F4.root
p2
a.