(lp0
Vroot://cms-xrdr.private.lo:2094//xrd/store/data/Run2017F/DoubleMuon/NANOAOD/Nano1June2019-v1/40000/E0CD53C3-9F09-A442-B2D8-124C92A4A4CD.root
p1
aVroot://cms-xrdr.private.lo:2094//xrd/store/data/Run2017F/DoubleMuon/NANOAOD/Nano1June2019-v1/40000/E93C627F-4B67-2141-BBE1-617DC234FE70.root
p2
a.