(lp0
Vroot://cms-xrdr.private.lo:2094//xrd/store/data/Run2017F/SingleMuon/NANOAOD/Nano25Oct2019-v1/30000/9EF9B5A3-0AAB-794F-BF21-4C3641BA31D0.root
p1
aVroot://cms-xrdr.private.lo:2094//xrd/store/data/Run2017F/SingleMuon/NANOAOD/Nano25Oct2019-v1/30000/A592768D-2D50-4849-9C88-55A42CAEF5D2.root
p2
a.