(lp0
Vroot://cms-xrdr.private.lo:2094//xrd/store/data/Run2017D/SingleElectron/NANOAOD/Nano25Oct2019-v1/20000/91E32C6A-8F9C-D247-8270-399F0124CB4F.root
p1
aVroot://cms-xrdr.private.lo:2094//xrd/store/data/Run2017D/SingleElectron/NANOAOD/Nano25Oct2019-v1/20000/96D8BA20-4C0A-3E4A-A37C-B77346F45F8C.root
p2
a.