(lp0
Vroot://cms-xrdr.private.lo:2094//xrd/store/data/Run2017C/SingleMuon/NANOAOD/Nano25Oct2019-v1/230000/2B9ADABA-319B-1F40-BF02-60D3283C8158.root
p1
aVroot://cms-xrdr.private.lo:2094//xrd/store/data/Run2017C/SingleMuon/NANOAOD/Nano25Oct2019-v1/230000/2C3319E5-E939-6140-9F61-36D5AEF9E3DF.root
p2
a.