(lp0
Vroot://cms-xrdr.private.lo:2094//xrd/store/data/Run2017F/SingleElectron/NANOAOD/Nano25Oct2019-v1/240000/0F35610B-2150-8B44-A51D-0B400139DCB4.root
p1
aVroot://cms-xrdr.private.lo:2094//xrd/store/data/Run2017F/SingleElectron/NANOAOD/Nano25Oct2019-v1/240000/0F3D0021-BF2E-A347-85EE-4A1F0CDB8CA4.root
p2
a.