(lp0
Vroot://cms-xrdr.private.lo:2094//xrd/store/data/Run2017F/SingleMuon/NANOAOD/Nano25Oct2019-v1/30000/7D03FF2A-AAA0-1741-A9B0-DAA5EC9AA415.root
p1
aVroot://cms-xrdr.private.lo:2094//xrd/store/data/Run2017F/SingleMuon/NANOAOD/Nano25Oct2019-v1/30000/7F3CB618-CF29-724D-974D-7CBE39B5E3B9.root
p2
a.