(lp0
Vroot://cms-xrdr.private.lo:2094//xrd/store/data/Run2017B/SingleMuon/NANOAOD/Nano25Oct2019-v1/40000/B9636B89-785E-414B-BBC3-4E29FD0BE407.root
p1
aVroot://cms-xrdr.private.lo:2094//xrd/store/data/Run2017B/SingleMuon/NANOAOD/Nano25Oct2019-v1/40000/BBC711E0-25F3-5E4D-B950-45EDBA3C1B53.root
p2
a.