(lp0
Vroot://cms-xrdr.private.lo:2094//xrd/store/data/Run2017F/SingleMuon/NANOAOD/Nano25Oct2019-v1/40000/6ADAC568-F575-4D4A-9F8B-289BF44C9293.root
p1
aVroot://cms-xrdr.private.lo:2094//xrd/store/data/Run2017F/SingleMuon/NANOAOD/Nano25Oct2019-v1/40000/6F0FEEAB-18E0-E94C-977C-68D13CF41DA6.root
p2
a.