(lp0
Vroot://cms-xrdr.private.lo:2094//xrd/store/data/Run2017B/DoubleMuon/NANOAOD/Nano1June2019-v1/70000/10164538-06B6-9743-AD7D-064747E15768.root
p1
aVroot://cms-xrdr.private.lo:2094//xrd/store/data/Run2017B/DoubleMuon/NANOAOD/Nano1June2019-v1/70000/50D54174-B291-DA4F-A97A-BC1E76754D89.root
p2
a.