(lp0
Vroot://cms-xrdr.private.lo:2094//xrd/store/data/Run2017F/SingleElectron/NANOAOD/Nano25Oct2019-v1/240000/CA19C96A-4721-0546-8490-9FFE4C7997AD.root
p1
aVroot://cms-xrdr.private.lo:2094//xrd/store/data/Run2017F/SingleElectron/NANOAOD/Nano25Oct2019-v1/240000/CA321FB7-DD40-5A4C-86DE-804E90A2CD6A.root
p2
a.