(lp0
Vroot://cms-xrdr.private.lo:2094//xrd/store/data/Run2017E/SingleElectron/NANOAOD/Nano25Oct2019-v1/20000/74A27870-345E-C44C-971F-CB69696B9DDE.root
p1
aVroot://cms-xrdr.private.lo:2094//xrd/store/data/Run2017E/SingleElectron/NANOAOD/Nano25Oct2019-v1/20000/76E263CD-F0E3-1C42-ADC4-E8BCDE6BC909.root
p2
a.