(lp0
Vroot://cms-xrdr.private.lo:2094//xrd/store/data/Run2017C/SingleElectron/NANOAOD/Nano25Oct2019-v1/20000/A1BA2C45-E082-9E4C-BDE6-A2F2AD5F52F8.root
p1
aVroot://cms-xrdr.private.lo:2094//xrd/store/data/Run2017C/SingleElectron/NANOAOD/Nano25Oct2019-v1/20000/A8B2AA07-26CE-3A44-B081-FB1FF911D80F.root
p2
a.