(lp0
Vroot://cms-xrdr.private.lo:2094//xrd/store/data/Run2017F/SingleMuon/NANOAOD/Nano25Oct2019-v1/30000/AEDBA356-D0CC-BB4E-AE01-80B3F44F58BD.root
p1
aVroot://cms-xrdr.private.lo:2094//xrd/store/data/Run2017F/SingleMuon/NANOAOD/Nano25Oct2019-v1/30000/B08DADD8-26F5-1A4B-9504-D8ABFE8846F3.root
p2
a.