(lp0
Vroot://cms-xrdr.private.lo:2094//xrd/store/data/Run2017D/SingleElectron/NANOAOD/Nano25Oct2019-v1/20000/268BAEFF-03AA-464F-9C46-90A1319BE608.root
p1
aVroot://cms-xrdr.private.lo:2094//xrd/store/data/Run2017D/SingleElectron/NANOAOD/Nano25Oct2019-v1/20000/299A0573-E850-9841-96CB-5C183F9ADDF1.root
p2
a.