(lp0
Vroot://cms-xrdr.private.lo:2094//xrd/store/data/Run2017C/SingleElectron/NANOAOD/Nano25Oct2019-v1/20000/F3458681-352B-7D43-94D3-DFD52010E539.root
p1
aVroot://cms-xrdr.private.lo:2094//xrd/store/data/Run2017C/SingleElectron/NANOAOD/Nano25Oct2019-v1/20000/F5AD8EE4-37A0-7B45-B47F-1E4F28E1FAB3.root
p2
a.