(lp0
Vroot://cms-xrdr.private.lo:2094//xrd/store/data/Run2017C/SingleElectron/NANOAOD/Nano25Oct2019-v1/20000/DC14E6C7-4660-C848-B5AB-0B9082A591BF.root
p1
aVroot://cms-xrdr.private.lo:2094//xrd/store/data/Run2017C/SingleElectron/NANOAOD/Nano25Oct2019-v1/20000/DD2C758F-84C8-DC4A-895A-43F9DE395E5A.root
p2
a.