(lp0
Vroot://cms-xrdr.private.lo:2094//xrd/store/data/Run2017E/SingleElectron/NANOAOD/Nano25Oct2019-v1/20000/C9CFB9E9-C858-B749-80BD-DDFF9ACFFFFE.root
p1
aVroot://cms-xrdr.private.lo:2094//xrd/store/data/Run2017E/SingleElectron/NANOAOD/Nano25Oct2019-v1/20000/CB137908-84F0-9342-B9D1-5AA29B5BD44E.root
p2
a.