(lp0
Vroot://cms-xrdr.private.lo:2094//xrd/store/data/Run2017C/SingleMuon/NANOAOD/Nano25Oct2019-v1/230000/2D90AF69-3429-F94A-B8C2-C884D8C1BEEE.root
p1
aVroot://cms-xrdr.private.lo:2094//xrd/store/data/Run2017C/SingleMuon/NANOAOD/Nano25Oct2019-v1/230000/32C307DF-511E-1E43-B35B-E19E254464DF.root
p2
a.