(lp0
Vroot://cms-xrdr.private.lo:2094//xrd/store/data/Run2017B/SingleMuon/NANOAOD/Nano25Oct2019-v1/40000/641EBF6D-518C-1640-90CC-D0A1F12C097A.root
p1
aVroot://cms-xrdr.private.lo:2094//xrd/store/data/Run2017B/SingleMuon/NANOAOD/Nano25Oct2019-v1/40000/66C4BA5B-31F7-2446-A4B1-1BE4B5FAA4DF.root
p2
a.