(lp0
Vroot://cms-xrdr.private.lo:2094//xrd/store/data/Run2017C/SingleMuon/NANOAOD/Nano25Oct2019-v1/230000/AC61CD20-893F-4C42-86C3-86BC0CDE3CA1.root
p1
aVroot://cms-xrdr.private.lo:2094//xrd/store/data/Run2017C/SingleMuon/NANOAOD/Nano25Oct2019-v1/230000/AD791BB5-94C5-124B-B1CB-A64F6A1412F9.root
p2
a.