(lp0
Vroot://cms-xrdr.private.lo:2094//xrd/store/data/Run2017F/SingleElectron/NANOAOD/Nano25Oct2019-v1/240000/6283F0D1-5F15-9145-9781-DEBFD1880C30.root
p1
aVroot://cms-xrdr.private.lo:2094//xrd/store/data/Run2017F/SingleElectron/NANOAOD/Nano25Oct2019-v1/240000/68A4EE6A-C722-8D47-9F31-FF03AC63108E.root
p2
a.