(lp0
Vroot://cms-xrdr.private.lo:2094//xrd/store/data/Run2017F/SingleMuon/NANOAOD/Nano25Oct2019-v1/30000/9170F29A-ECB2-0447-AB0C-B4F1FA68FFB3.root
p1
aVroot://cms-xrdr.private.lo:2094//xrd/store/data/Run2017F/SingleMuon/NANOAOD/Nano25Oct2019-v1/30000/922F6D1A-05DB-8941-8134-057783B9F21B.root
p2
a.