(lp0
Vroot://cms-xrdr.private.lo:2094//xrd/store/data/Run2017C/SingleMuon/NANOAOD/Nano25Oct2019-v1/230000/D6C63D36-C83E-1244-BA97-29A4BB71ACDF.root
p1
aVroot://cms-xrdr.private.lo:2094//xrd/store/data/Run2017C/SingleMuon/NANOAOD/Nano25Oct2019-v1/230000/D7744DFC-D1D4-E849-B9B7-D6356EBCE75B.root
p2
a.