(lp0
Vroot://cms-xrdr.private.lo:2094//xrd/store/data/Run2017E/DoubleMuon/NANOAOD/Nano1June2019-v1/30000/5A13D970-6E46-3B4D-BAB2-0679A492E597.root
p1
aVroot://cms-xrdr.private.lo:2094//xrd/store/data/Run2017E/DoubleMuon/NANOAOD/Nano1June2019-v1/30000/7F3DE7A0-396B-B747-A9A6-C0D9E7BA0269.root
p2
a.