(lp0
Vroot://cms-xrdr.private.lo:2094//xrd/store/data/Run2017E/DoubleMuon/NANOAOD/Nano1June2019-v1/30000/CC22791E-CCCC-A040-8D99-45E40F5B034F.root
p1
aVroot://cms-xrdr.private.lo:2094//xrd/store/data/Run2017E/DoubleMuon/NANOAOD/Nano1June2019-v1/30000/D569EB7F-3545-7146-A5AE-E3AEA50A3FB8.root
p2
a.