(lp0
Vroot://cms-xrdr.private.lo:2094//xrd/store/data/Run2017F/SingleMuon/NANOAOD/Nano25Oct2019-v1/30000/E64FEF90-4F12-DB46-9B5D-B00A3FC66FC9.root
p1
aVroot://cms-xrdr.private.lo:2094//xrd/store/data/Run2017F/SingleMuon/NANOAOD/Nano25Oct2019-v1/30000/E7203EEB-CE8A-BF4E-9897-1452D0FD3A6B.root
p2
a.