(lp0
Vroot://cms-xrdr.private.lo:2094//xrd/store/data/Run2017C/DoubleMuon/NANOAOD/Nano1June2019-v1/70000/6560B131-9809-CB46-9DF5-AD324FB104C1.root
p1
aVroot://cms-xrdr.private.lo:2094//xrd/store/data/Run2017C/DoubleMuon/NANOAOD/Nano1June2019-v1/70000/657114A5-CB0A-3148-9CEE-CF6E35EFA22F.root
p2
a.