(lp0
Vroot://cms-xrdr.private.lo:2094//xrd/store/data/Run2017B/SingleElectron/NANOAOD/Nano25Oct2019-v1/20000/57B961B0-DCB3-6C48-864B-9C9EC7263E7D.root
p1
aVroot://cms-xrdr.private.lo:2094//xrd/store/data/Run2017B/SingleElectron/NANOAOD/Nano25Oct2019-v1/20000/5A055D09-09DF-A040-A004-F74469052CBA.root
p2
a.