(lp0
Vroot://cms-xrdr.private.lo:2094//xrd/store/data/Run2017E/SingleMuon/NANOAOD/Nano25Oct2019-v1/30000/7EC598E5-515F-DA46-AF45-064DFD4CABE9.root
p1
aVroot://cms-xrdr.private.lo:2094//xrd/store/data/Run2017E/SingleMuon/NANOAOD/Nano25Oct2019-v1/30000/7F309C70-DCE0-F44D-8CA2-F6439E45A379.root
p2
a.