(lp0
Vroot://cms-xrdr.private.lo:2094//xrd/store/data/Run2017F/SingleMuon/NANOAOD/Nano25Oct2019-v1/30000/14DA055B-53C3-4048-9FA8-4EBEC6E53D56.root
p1
aVroot://cms-xrdr.private.lo:2094//xrd/store/data/Run2017F/SingleMuon/NANOAOD/Nano25Oct2019-v1/30000/17917E7A-6DD6-DA43-B9F5-65988CA369A7.root
p2
a.