(lp0
Vroot://cms-xrdr.private.lo:2094//xrd/store/data/Run2017B/SingleMuon/NANOAOD/Nano25Oct2019-v1/40000/DAC4CC5A-CAA4-2445-BFE8-9A7DE58E656F.root
p1
aVroot://cms-xrdr.private.lo:2094//xrd/store/data/Run2017B/SingleMuon/NANOAOD/Nano25Oct2019-v1/40000/DD665338-11EC-754C-8864-F8E3AFEBDA61.root
p2
a.