(lp0
Vroot://cms-xrdr.private.lo:2094//xrd/store/data/Run2017B/SingleElectron/NANOAOD/Nano25Oct2019-v1/40000/7FAB43DE-2A94-884C-8DE6-E08DE92C48F9.root
p1
aVroot://cms-xrdr.private.lo:2094//xrd/store/data/Run2017B/SingleElectron/NANOAOD/Nano25Oct2019-v1/40000/82FB7170-9DE5-9549-AA39-9DE39CBF6739.root
p2
a.