(lp0
Vroot://cms-xrdr.private.lo:2094//xrd/store/data/Run2017F/SingleMuon/NANOAOD/Nano25Oct2019-v1/30000/3B5EFC5C-88B9-8E4B-87B0-B984C22DB290.root
p1
aVroot://cms-xrdr.private.lo:2094//xrd/store/data/Run2017F/SingleMuon/NANOAOD/Nano25Oct2019-v1/30000/3C967E2E-E10C-2D44-9B69-DFB6E5AA9D59.root
p2
a.