(lp0
Vroot://cms-xrdr.private.lo:2094//xrd/store/data/Run2017E/SingleMuon/NANOAOD/Nano25Oct2019-v1/30000/113A4249-6561-014D-813D-194A11ABCD57.root
p1
aVroot://cms-xrdr.private.lo:2094//xrd/store/data/Run2017E/SingleMuon/NANOAOD/Nano25Oct2019-v1/30000/117600EB-B6F7-2C41-91B7-26F1FC742E54.root
p2
a.