(lp0
Vroot://cms-xrdr.private.lo:2094//xrd/store/data/Run2017C/SingleMuon/NANOAOD/Nano25Oct2019-v1/230000/18D6444B-86B3-D749-9C5A-2BB0906FB315.root
p1
aVroot://cms-xrdr.private.lo:2094//xrd/store/data/Run2017C/SingleMuon/NANOAOD/Nano25Oct2019-v1/230000/22398E7B-AC00-2745-AFD7-2DD69017B180.root
p2
a.