(lp0
Vroot://cms-xrdr.private.lo:2094//xrd/store/data/Run2017B/SingleMuon/NANOAOD/Nano25Oct2019-v1/40000/D1F6194E-AF72-624A-B16A-8EB6AEB098BF.root
p1
aVroot://cms-xrdr.private.lo:2094//xrd/store/data/Run2017B/SingleMuon/NANOAOD/Nano25Oct2019-v1/40000/D71B5545-F84C-6B4A-B2B5-F81E77EED902.root
p2
a.