(lp0
Vroot://cms-xrdr.private.lo:2094//xrd/store/data/Run2017B/SingleElectron/NANOAOD/Nano25Oct2019-v1/40000/0CEFB2E7-B89D-6E47-B952-70CC54EC4CAC.root
p1
aVroot://cms-xrdr.private.lo:2094//xrd/store/data/Run2017B/SingleElectron/NANOAOD/Nano25Oct2019-v1/40000/15EDED32-63A6-F647-86AF-9524768D9905.root
p2
a.