(lp0
Vroot://cms-xrdr.private.lo:2094//xrd/store/data/Run2017C/SingleElectron/NANOAOD/Nano25Oct2019-v1/20000/FC2F940D-4B1C-7247-9615-ECD806F16AA4.root
p1
aVroot://cms-xrdr.private.lo:2094//xrd/store/data/Run2017C/SingleElectron/NANOAOD/Nano25Oct2019-v1/30000/16E1D5F7-7840-C44A-AEE2-7F189488A1D4.root
p2
a.