(lp0
Vroot://cms-xrdr.private.lo:2094//xrd/store/data/Run2017F/SingleMuon/NANOAOD/Nano25Oct2019-v1/30000/DB8F6555-CC6F-F24E-ABC3-43959B218274.root
p1
aVroot://cms-xrdr.private.lo:2094//xrd/store/data/Run2017F/SingleMuon/NANOAOD/Nano25Oct2019-v1/30000/DEE8ACF6-2080-DC48-80B5-614BA5CB0E95.root
p2
a.