(lp0
Vroot://cms-xrdr.private.lo:2094//xrd/store/data/Run2017E/SingleMuon/NANOAOD/Nano25Oct2019-v1/260000/7A6202EE-715C-7844-A022-DA0A7C528876.root
p1
aVroot://cms-xrdr.private.lo:2094//xrd/store/data/Run2017E/SingleMuon/NANOAOD/Nano25Oct2019-v1/260000/85E75AE8-CE76-4A4C-85B8-E524F778EA5B.root
p2
a.