(lp0
Vroot://cms-xrdr.private.lo:2094//xrd/store/data/Run2017F/DoubleMuon/NANOAOD/Nano1June2019-v1/40000/5C117361-B8A9-0642-B9D1-19FB1EB98B51.root
p1
aVroot://cms-xrdr.private.lo:2094//xrd/store/data/Run2017F/DoubleMuon/NANOAOD/Nano1June2019-v1/40000/6677D51E-4CAA-5047-9440-F812FA8B2417.root
p2
a.