(lp0
Vroot://cms-xrdr.private.lo:2094//xrd/store/data/Run2017F/SingleMuon/NANOAOD/Nano25Oct2019-v1/30000/F8C3EFDF-BEC5-7643-A86F-66856CB8A047.root
p1
aVroot://cms-xrdr.private.lo:2094//xrd/store/data/Run2017F/SingleMuon/NANOAOD/Nano25Oct2019-v1/30000/FC1C3793-B355-6A43-94E6-1AB3681A7CB9.root
p2
a.