(lp0
Vroot://cms-xrdr.private.lo:2094//xrd/store/data/Run2017B/SingleElectron/NANOAOD/Nano25Oct2019-v1/40000/6C7D683D-143E-4B4E-9B81-516F799CA8BF.root
p1
aVroot://cms-xrdr.private.lo:2094//xrd/store/data/Run2017B/SingleElectron/NANOAOD/Nano25Oct2019-v1/40000/6F84EBFC-38F5-5D4B-B859-42D3F6C7DD10.root
p2
a.