(lp0
Vroot://cms-xrdr.private.lo:2094//xrd/store/data/Run2017E/SingleMuon/NANOAOD/Nano25Oct2019-v1/30000/DC7180DE-CF2B-AF48-9F87-21B6344EDF6E.root
p1
aVroot://cms-xrdr.private.lo:2094//xrd/store/data/Run2017E/SingleMuon/NANOAOD/Nano25Oct2019-v1/30000/DC7F91BF-B525-514C-9F6E-8BFF3731F8EC.root
p2
a.