(lp0
Vroot://cms-xrdr.private.lo:2094//xrd/store/data/Run2017E/SingleElectron/NANOAOD/Nano25Oct2019-v1/20000/C1328B76-AE70-504B-A183-7249A50C1CB3.root
p1
aVroot://cms-xrdr.private.lo:2094//xrd/store/data/Run2017E/SingleElectron/NANOAOD/Nano25Oct2019-v1/20000/C57FDBDB-4F40-F84D-B047-EC496D5A5931.root
p2
a.