(lp0
Vroot://cms-xrdr.private.lo:2094//xrd/store/data/Run2017F/DoubleMuon/NANOAOD/Nano1June2019-v1/40000/4161680E-D2CA-524A-B655-A7C5AD2307A7.root
p1
aVroot://cms-xrdr.private.lo:2094//xrd/store/data/Run2017F/DoubleMuon/NANOAOD/Nano1June2019-v1/40000/482D0291-88AC-CA4E-81F8-226EC5FC1737.root
p2
a.