(lp0
Vroot://cms-xrdr.private.lo:2094//xrd/store/data/Run2017C/SingleElectron/NANOAOD/Nano25Oct2019-v1/20000/E0D1BAC7-76E6-1C4A-BACF-62B4EBFC3ED0.root
p1
aVroot://cms-xrdr.private.lo:2094//xrd/store/data/Run2017C/SingleElectron/NANOAOD/Nano25Oct2019-v1/20000/E12A49E5-C239-344D-B6F3-25597EFA0823.root
p2
a.