(lp0
Vroot://cms-xrdr.private.lo:2094//xrd/store/data/Run2017F/SingleMuon/NANOAOD/Nano25Oct2019-v1/30000/2D2EAA13-D4FF-3F41-8513-57B2512ECB54.root
p1
aVroot://cms-xrdr.private.lo:2094//xrd/store/data/Run2017F/SingleMuon/NANOAOD/Nano25Oct2019-v1/30000/3061E2C7-D82A-794A-B9D8-197AD2CC229C.root
p2
a.