(lp0
Vroot://cms-xrdr.private.lo:2094//xrd/store/data/Run2017C/SingleMuon/NANOAOD/Nano25Oct2019-v1/230000/8AF7BFAA-98F5-9B41-AC24-7AAC7C0093EA.root
p1
aVroot://cms-xrdr.private.lo:2094//xrd/store/data/Run2017C/SingleMuon/NANOAOD/Nano25Oct2019-v1/230000/8FC7778F-4601-A248-9D8B-E48EB8D450BB.root
p2
a.