(lp0
Vroot://cms-xrdr.private.lo:2094//xrd/store/data/Run2017F/SingleMuon/NANOAOD/Nano25Oct2019-v1/30000/F16BDAD4-2EE2-2743-8D1E-4B37868BF3AA.root
p1
aVroot://cms-xrdr.private.lo:2094//xrd/store/data/Run2017F/SingleMuon/NANOAOD/Nano25Oct2019-v1/30000/F2A95C9B-AE59-4145-9165-B6EFDAF34578.root
p2
a.