(lp0
Vroot://cms-xrdr.private.lo:2094//xrd/store/data/Run2017B/DoubleMuon/NANOAOD/Nano1June2019-v1/70000/559BB47B-AC9C-B14B-BF4B-840DF1966D8D.root
p1
aVroot://cms-xrdr.private.lo:2094//xrd/store/data/Run2017B/DoubleMuon/NANOAOD/Nano1June2019-v1/70000/5F376989-3366-C147-B65F-6239BB568595.root
p2
a.