(lp0
Vroot://cms-xrdr.private.lo:2094//xrd/store/data/Run2017F/SingleMuon/NANOAOD/Nano25Oct2019-v1/40000/1A3C8E74-8E41-F147-AC78-5E061E767544.root
p1
aVroot://cms-xrdr.private.lo:2094//xrd/store/data/Run2017F/SingleMuon/NANOAOD/Nano25Oct2019-v1/40000/230ED6D1-60DC-DD4F-9182-FEA7A88CDA5F.root
p2
a.