(lp0
Vroot://cms-xrdr.private.lo:2094//xrd/store/data/Run2017C/SingleMuon/NANOAOD/Nano25Oct2019-v1/230000/36488A43-CC7B-D947-8768-C7EA82D83261.root
p1
aVroot://cms-xrdr.private.lo:2094//xrd/store/data/Run2017C/SingleMuon/NANOAOD/Nano25Oct2019-v1/230000/364D9098-4D5F-4B4F-A9C8-64583F3FD0F0.root
p2
a.