(lp0
Vroot://cms-xrdr.private.lo:2094//xrd/store/data/Run2017E/SingleMuon/NANOAOD/Nano25Oct2019-v1/30000/A6D85B11-EFA5-3C4D-B25E-A231DE94B727.root
p1
aVroot://cms-xrdr.private.lo:2094//xrd/store/data/Run2017E/SingleMuon/NANOAOD/Nano25Oct2019-v1/30000/A892FAE7-F822-8C4B-BD4C-92D2A6DF7E6B.root
p2
a.