(lp0
Vroot://cms-xrdr.private.lo:2094//xrd/store/data/Run2017F/DoubleMuon/NANOAOD/Nano1June2019-v1/40000/2E656904-9C0B-3E4B-9A19-D92160BF9D84.root
p1
aVroot://cms-xrdr.private.lo:2094//xrd/store/data/Run2017F/DoubleMuon/NANOAOD/Nano1June2019-v1/40000/303CF6FB-CAD6-BD42-A54A-85479230BD41.root
p2
a.