(lp0
Vroot://cms-xrdr.private.lo:2094//xrd/store/data/Run2017F/SingleElectron/NANOAOD/Nano25Oct2019-v1/240000/CA6726A2-FDFF-4B46-92A2-79E8DC5A1424.root
p1
aVroot://cms-xrdr.private.lo:2094//xrd/store/data/Run2017F/SingleElectron/NANOAOD/Nano25Oct2019-v1/240000/CF34EE82-512B-DC48-A2AE-C176AA75C66E.root
p2
a.