(lp0
Vroot://cms-xrdr.private.lo:2094//xrd/store/data/Run2017F/SingleElectron/NANOAOD/Nano25Oct2019-v1/240000/C320D410-28F5-9F40-8BDF-5F0CEBD1E8AF.root
p1
aVroot://cms-xrdr.private.lo:2094//xrd/store/data/Run2017F/SingleElectron/NANOAOD/Nano25Oct2019-v1/240000/C7837B3F-A2E2-264A-BA9D-E359507CBD7B.root
p2
a.