(lp0
Vroot://cms-xrdr.private.lo:2094//xrd/store/data/Run2017C/SingleMuon/NANOAOD/Nano25Oct2019-v1/230000/44FC178E-7EAC-A345-9664-ECC3CEF1ECA5.root
p1
aVroot://cms-xrdr.private.lo:2094//xrd/store/data/Run2017C/SingleMuon/NANOAOD/Nano25Oct2019-v1/230000/472EA764-90DB-7D43-8C1F-49449B4E336E.root
p2
a.