(lp0
Vroot://cms-xrdr.private.lo:2094//xrd/store/data/Run2017D/SingleElectron/NANOAOD/Nano25Oct2019-v1/20000/EC1E3E9D-D4C1-0E4F-8799-0FB8F7C79BA1.root
p1
aVroot://cms-xrdr.private.lo:2094//xrd/store/data/Run2017D/SingleElectron/NANOAOD/Nano25Oct2019-v1/20000/F34F9320-50BB-5E41-8A3C-B1E0486957DA.root
p2
a.