(lp0
Vroot://cms-xrdr.private.lo:2094//xrd/store/data/Run2017E/SingleMuon/NANOAOD/Nano25Oct2019-v1/260000/D282A2DD-9F68-7547-9FB7-FE1F5E549E1E.root
p1
aVroot://cms-xrdr.private.lo:2094//xrd/store/data/Run2017E/SingleMuon/NANOAOD/Nano25Oct2019-v1/260000/D6348075-B852-8543-9865-418026CDA75A.root
p2
a.