(lp0
Vroot://cms-xrdr.private.lo:2094//xrd/store/data/Run2017C/SingleElectron/NANOAOD/Nano25Oct2019-v1/20000/69C82CE8-90AF-7641-A4DD-A93F043E1C44.root
p1
aVroot://cms-xrdr.private.lo:2094//xrd/store/data/Run2017C/SingleElectron/NANOAOD/Nano25Oct2019-v1/20000/69D42706-4EB9-E043-A8A6-2176E591B8E4.root
p2
a.