(lp0
Vroot://cms-xrdr.private.lo:2094//xrd/store/data/Run2017B/SingleMuon/NANOAOD/Nano25Oct2019-v1/40000/8DD8844B-804B-1A4A-9B03-EF8812FF6DC8.root
p1
aVroot://cms-xrdr.private.lo:2094//xrd/store/data/Run2017B/SingleMuon/NANOAOD/Nano25Oct2019-v1/40000/936A92A8-A05E-534F-A0E1-8BE818FC9510.root
p2
a.