(lp0
Vroot://cms-xrdr.private.lo:2094//xrd/store/data/Run2017C/SingleMuon/NANOAOD/Nano25Oct2019-v1/230000/5592D5FA-3AD9-6941-B229-FF491EBBEDE5.root
p1
aVroot://cms-xrdr.private.lo:2094//xrd/store/data/Run2017C/SingleMuon/NANOAOD/Nano25Oct2019-v1/230000/5BE4BE8F-E330-144A-93AA-61B07F53D913.root
p2
a.