(lp0
Vroot://cms-xrdr.private.lo:2094//xrd/store/data/Run2017F/DoubleMuon/NANOAOD/Nano1June2019-v1/1110000/937C555D-CEFF-ED4A-919A-F343EF972AC5.root
p1
aVroot://cms-xrdr.private.lo:2094//xrd/store/data/Run2017F/DoubleMuon/NANOAOD/Nano1June2019-v1/30000/A341FC52-FC81-F146-99C3-109DCA2955A1.root
p2
a.