(lp0
Vroot://cms-xrdr.private.lo:2094//xrd/store/data/Run2017F/SingleMuon/NANOAOD/Nano25Oct2019-v1/30000/ACCCA237-0AF3-F243-BEC2-661D204A12E2.root
p1
aVroot://cms-xrdr.private.lo:2094//xrd/store/data/Run2017F/SingleMuon/NANOAOD/Nano25Oct2019-v1/30000/ADCC1F74-DC62-544B-810B-DBA3ED847543.root
p2
a.