(lp0
Vroot://cms-xrdr.private.lo:2094//xrd/store/data/Run2017E/DoubleMuon/NANOAOD/Nano1June2019-v1/40000/B3BC4C7B-24FB-F947-9892-9B4F41A02E94.root
p1
aVroot://cms-xrdr.private.lo:2094//xrd/store/data/Run2017E/DoubleMuon/NANOAOD/Nano1June2019-v1/40000/BC4E8CEA-54AE-D547-9B4E-0F40F6FD0D41.root
p2
a.