(lp0
Vroot://cms-xrdr.private.lo:2094//xrd/store/data/Run2017E/SingleMuon/NANOAOD/Nano25Oct2019-v1/30000/2B858C0A-6301-2B4A-8D97-A64511853A32.root
p1
aVroot://cms-xrdr.private.lo:2094//xrd/store/data/Run2017E/SingleMuon/NANOAOD/Nano25Oct2019-v1/30000/2BAC1D64-17D9-2D46-B868-E5D75B7098EF.root
p2
a.