(lp0
Vroot://cms-xrdr.private.lo:2094//xrd/store/data/Run2017E/SingleMuon/NANOAOD/Nano25Oct2019-v1/30000/5F3B2FAD-2BFE-2748-9FFB-D1AF6FD0A657.root
p1
aVroot://cms-xrdr.private.lo:2094//xrd/store/data/Run2017E/SingleMuon/NANOAOD/Nano25Oct2019-v1/30000/6073B38D-2D22-9344-B7B5-9B90D93A4CEF.root
p2
a.