(lp0
Vroot://cms-xrdr.private.lo:2094//xrd/store/data/Run2017B/SingleMuon/NANOAOD/Nano25Oct2019-v1/40000/F050C0C6-123B-8A4F-84A9-9FE203E48854.root
p1
aVroot://cms-xrdr.private.lo:2094//xrd/store/data/Run2017B/SingleMuon/NANOAOD/Nano25Oct2019-v1/40000/F2123377-6D2F-AB49-A1C2-67A00A6F9174.root
p2
a.