(lp0
Vroot://cms-xrdr.private.lo:2094//xrd/store/data/Run2017B/SingleMuon/NANOAOD/Nano25Oct2019-v1/40000/179F0F0E-BE39-2B44-ACC0-81AFB376775E.root
p1
aVroot://cms-xrdr.private.lo:2094//xrd/store/data/Run2017B/SingleMuon/NANOAOD/Nano25Oct2019-v1/40000/18E382B1-DE9E-3746-8A3B-EF6D69B1AAB7.root
p2
a.