(lp0
Vroot://cms-xrdr.private.lo:2094//xrd/store/data/Run2017E/SingleElectron/NANOAOD/Nano25Oct2019-v1/20000/9B64BBD8-33C3-5D4B-BD72-C03B60473C5E.root
p1
aVroot://cms-xrdr.private.lo:2094//xrd/store/data/Run2017E/SingleElectron/NANOAOD/Nano25Oct2019-v1/20000/9EDED692-9EDF-9148-90A7-C5D7E92D84AB.root
p2
a.