(lp0
Vroot://cms-xrdr.private.lo:2094//xrd/store/data/Run2017E/SingleMuon/NANOAOD/Nano25Oct2019-v1/30000/886E89C2-EE05-1247-8C6E-30CCAD33472E.root
p1
aVroot://cms-xrdr.private.lo:2094//xrd/store/data/Run2017E/SingleMuon/NANOAOD/Nano25Oct2019-v1/30000/88B7868E-1D96-1749-B232-B0EEAB0C8B38.root
p2
a.