(lp0
Vroot://cms-xrdr.private.lo:2094//xrd/store/data/Run2017F/SingleElectron/NANOAOD/Nano25Oct2019-v1/230000/36E53F56-8EEF-A34E-9BBF-9FDEBEEF1A92.root
p1
aVroot://cms-xrdr.private.lo:2094//xrd/store/data/Run2017F/SingleElectron/NANOAOD/Nano25Oct2019-v1/230000/CCE524E1-ADAC-2A4A-BF87-793BC5F1196F.root
p2
a.