(lp0
Vroot://cms-xrdr.private.lo:2094//xrd/store/data/Run2017F/SingleElectron/NANOAOD/Nano25Oct2019-v1/240000/9BA4DCD8-F5DA-964C-8B97-E38A007288A7.root
p1
aVroot://cms-xrdr.private.lo:2094//xrd/store/data/Run2017F/SingleElectron/NANOAOD/Nano25Oct2019-v1/240000/A0910F5C-558E-7546-B1E9-4B414ACF32F4.root
p2
a.