(lp0
Vroot://cms-xrdr.private.lo:2094//xrd/store/data/Run2017D/SingleMuon/NANOAOD/Nano25Oct2019-v1/40000/5317F067-0FDC-3C46-BFA4-88DFEF08639C.root
p1
aVroot://cms-xrdr.private.lo:2094//xrd/store/data/Run2017D/SingleMuon/NANOAOD/Nano25Oct2019-v1/40000/5671758F-07A0-C542-8E7C-53A114ACC5AA.root
p2
a.