(lp0
Vroot://cms-xrdr.private.lo:2094//xrd/store/data/Run2017F/SingleMuon/NANOAOD/Nano25Oct2019-v1/40000/02C8C71F-8173-5C45-92B5-0B88BE7767CE.root
p1
aVroot://cms-xrdr.private.lo:2094//xrd/store/data/Run2017F/SingleMuon/NANOAOD/Nano25Oct2019-v1/40000/12AFF32F-B346-CF4C-87A3-3F4D2F4D8F69.root
p2
a.