(lp0
Vroot://cms-xrdr.private.lo:2094//xrd/store/data/Run2017D/SingleMuon/NANOAOD/Nano25Oct2019-v1/40000/B178FE4B-2572-714D-AF9E-75EDAC976BC3.root
p1
aVroot://cms-xrdr.private.lo:2094//xrd/store/data/Run2017D/SingleMuon/NANOAOD/Nano25Oct2019-v1/40000/B34125A9-1D55-0C47-889C-10E6E5A7400D.root
p2
a.