(lp0
Vroot://cms-xrdr.private.lo:2094//xrd/store/data/Run2017C/DoubleMuon/NANOAOD/Nano1June2019-v1/70000/D845A445-1FA5-2347-BFF2-61A68FDF0A9A.root
p1
aVroot://cms-xrdr.private.lo:2094//xrd/store/data/Run2017C/DoubleMuon/NANOAOD/Nano1June2019-v1/70000/DA2BB2E4-F86C-C047-8F18-76C23CF4277F.root
p2
a.