(lp0
Vroot://cms-xrdr.private.lo:2094//xrd/store/data/Run2017F/DoubleMuon/NANOAOD/Nano1June2019-v1/40000/91F7865E-E96B-294C-A948-5DE6F5079777.root
p1
aVroot://cms-xrdr.private.lo:2094//xrd/store/data/Run2017F/DoubleMuon/NANOAOD/Nano1June2019-v1/40000/9499EDC6-DD1D-4642-87FE-FF5BAEC6C474.root
p2
a.