(lp0
Vroot://cms-xrdr.private.lo:2094//xrd/store/data/Run2017C/SingleMuon/NANOAOD/Nano25Oct2019-v1/230000/0F31BE5C-8212-5D48-96F1-F7E0A7B030C0.root
p1
aVroot://cms-xrdr.private.lo:2094//xrd/store/data/Run2017C/SingleMuon/NANOAOD/Nano25Oct2019-v1/230000/16F2FB93-0CBB-F143-A804-96F6C2A39AE6.root
p2
a.