(lp0
Vroot://cms-xrdr.private.lo:2094//xrd/store/data/Run2017E/SingleMuon/NANOAOD/Nano25Oct2019-v1/30000/AAF4A888-1C74-3E4B-93F5-1FE2C2AC70DF.root
p1
aVroot://cms-xrdr.private.lo:2094//xrd/store/data/Run2017E/SingleMuon/NANOAOD/Nano25Oct2019-v1/30000/AB840EA1-2B87-D241-A8BD-AD7484090CE8.root
p2
a.