(lp0
Vroot://cms-xrdr.private.lo:2094//xrd/store/data/Run2017B/SingleMuon/NANOAOD/Nano25Oct2019-v1/40000/C12249FC-772C-DE4A-B4D3-B30C1DBDC921.root
p1
aVroot://cms-xrdr.private.lo:2094//xrd/store/data/Run2017B/SingleMuon/NANOAOD/Nano25Oct2019-v1/40000/C57DAB4D-D029-9041-88A7-436E5A3C935D.root
p2
a.