(lp0
Vroot://cms-xrdr.private.lo:2094//xrd/store/data/Run2017F/DoubleMuon/NANOAOD/Nano1June2019-v1/40000/BE24CBA1-34D8-F04C-942F-BEB87A16BD13.root
p1
aVroot://cms-xrdr.private.lo:2094//xrd/store/data/Run2017F/DoubleMuon/NANOAOD/Nano1June2019-v1/40000/C03752CE-3D88-2C42-9305-BD00455E44E8.root
p2
a.