(lp0
Vroot://cms-xrdr.private.lo:2094//xrd/store/data/Run2017F/SingleMuon/NANOAOD/Nano25Oct2019-v1/30000/A5E01F46-B9FE-E943-BD74-2875A6A3B21B.root
p1
aVroot://cms-xrdr.private.lo:2094//xrd/store/data/Run2017F/SingleMuon/NANOAOD/Nano25Oct2019-v1/30000/A60BEAA6-560B-0145-9CF3-2D69A60D4B5A.root
p2
a.