(lp0
Vroot://cms-xrdr.private.lo:2094//xrd/store/data/Run2017F/SingleElectron/NANOAOD/Nano25Oct2019-v1/240000/6DEBD53B-13F1-BE4B-916A-C4E65363D174.root
p1
aVroot://cms-xrdr.private.lo:2094//xrd/store/data/Run2017F/SingleElectron/NANOAOD/Nano25Oct2019-v1/240000/73A5BCD8-25D4-7F44-9EEB-FCB71973195F.root
p2
a.