(lp0
Vroot://cms-xrdr.private.lo:2094//xrd/store/data/Run2017D/SingleElectron/NANOAOD/Nano25Oct2019-v1/20000/9FB8B83D-F40D-B64A-A157-DE5A087D6673.root
p1
aVroot://cms-xrdr.private.lo:2094//xrd/store/data/Run2017D/SingleElectron/NANOAOD/Nano25Oct2019-v1/20000/D8391F21-B437-8F4F-8C66-B63F86C6AB95.root
p2
a.