(lp0
Vroot://cms-xrdr.private.lo:2094//xrd/store/data/Run2017E/DoubleMuon/NANOAOD/Nano1June2019-v1/30000/285EA18D-0594-6F4A-9B27-51C98A9D3B3A.root
p1
aVroot://cms-xrdr.private.lo:2094//xrd/store/data/Run2017E/DoubleMuon/NANOAOD/Nano1June2019-v1/30000/3BE973AA-E419-5D49-9627-EDE1667CC3D5.root
p2
a.