(lp0
Vroot://cms-xrdr.private.lo:2094//xrd/store/data/Run2017B/SingleMuon/NANOAOD/Nano25Oct2019-v1/40000/506AA6AD-6002-7A4F-AEA2-C4C8347D4F76.root
p1
aVroot://cms-xrdr.private.lo:2094//xrd/store/data/Run2017B/SingleMuon/NANOAOD/Nano25Oct2019-v1/40000/549ECD8F-449F-584C-BEF8-3A702136B3AF.root
p2
a.