(lp0
Vroot://cms-xrdr.private.lo:2094//xrd/store/data/Run2017B/SingleElectron/NANOAOD/Nano25Oct2019-v1/40000/D76F0A90-F397-6940-8D63-B2975C9E2D55.root
p1
aVroot://cms-xrdr.private.lo:2094//xrd/store/data/Run2017B/SingleElectron/NANOAOD/Nano25Oct2019-v1/40000/DDC76D5B-C6F7-FA49-9DBE-B9F825C3CAB6.root
p2
a.