(lp0
Vroot://cms-xrdr.private.lo:2094//xrd/store/data/Run2017C/SingleElectron/NANOAOD/Nano25Oct2019-v1/20000/682711E7-3149-6541-BF60-F0CDEB736F93.root
p1
aVroot://cms-xrdr.private.lo:2094//xrd/store/data/Run2017C/SingleElectron/NANOAOD/Nano25Oct2019-v1/20000/697316BA-548E-8343-B5BA-1EC49E7642E5.root
p2
a.