(lp0
Vroot://cms-xrdr.private.lo:2094//xrd/store/data/Run2017F/SingleMuon/NANOAOD/Nano25Oct2019-v1/30000/0FE79B2C-F8C6-F64B-9C92-D65D43B4F4A8.root
p1
aVroot://cms-xrdr.private.lo:2094//xrd/store/data/Run2017F/SingleMuon/NANOAOD/Nano25Oct2019-v1/30000/104A5707-11D5-1C4D-A60D-924CB0424C28.root
p2
a.