(lp0
Vroot://cms-xrdr.private.lo:2094//xrd/store/data/Run2017E/DoubleMuon/NANOAOD/Nano1June2019-v1/30000/A7E1346A-3B58-154D-B98E-09C2752AEBDD.root
p1
aVroot://cms-xrdr.private.lo:2094//xrd/store/data/Run2017E/DoubleMuon/NANOAOD/Nano1June2019-v1/30000/A8FE110E-BE4E-8F40-8AE7-7032C9AE75F0.root
p2
a.