(lp0
Vroot://cms-xrdr.private.lo:2094//xrd/store/data/Run2017C/SingleElectron/NANOAOD/Nano25Oct2019-v1/20000/23B1FC3F-8CDB-8741-9756-2C0D700AC465.root
p1
aVroot://cms-xrdr.private.lo:2094//xrd/store/data/Run2017C/SingleElectron/NANOAOD/Nano25Oct2019-v1/20000/25460D87-F487-7440-BD6F-4D01690F25D0.root
p2
a.