(lp0
Vroot://cms-xrdr.private.lo:2094//xrd/store/data/Run2017D/DoubleMuon/NANOAOD/Nano1June2019-v1/30000/820A4496-C9D4-0140-A850-DAFE96C78224.root
p1
aVroot://cms-xrdr.private.lo:2094//xrd/store/data/Run2017D/DoubleMuon/NANOAOD/Nano1June2019-v1/30000/8DD30401-E8A7-6940-A953-0810F120FA0C.root
p2
a.