(lp0
Vroot://cms-xrdr.private.lo:2094//xrd/store/data/Run2017F/SingleElectron/NANOAOD/Nano25Oct2019-v1/240000/42E9BA67-CCD4-824A-BE2A-40ABCF6AC108.root
p1
aVroot://cms-xrdr.private.lo:2094//xrd/store/data/Run2017F/SingleElectron/NANOAOD/Nano25Oct2019-v1/240000/4352ECD4-E376-3049-9343-7D932D57B6E1.root
p2
a.