(lp0
Vroot://cms-xrdr.private.lo:2094//xrd/store/data/Run2017C/SingleElectron/NANOAOD/Nano25Oct2019-v1/20000/532E2917-58AE-7641-9378-733F2CDFEE11.root
p1
aVroot://cms-xrdr.private.lo:2094//xrd/store/data/Run2017C/SingleElectron/NANOAOD/Nano25Oct2019-v1/20000/5545108A-AE19-B642-8828-A7A5C156B633.root
p2
a.