(lp0
Vroot://cms-xrdr.private.lo:2094//xrd/store/data/Run2017F/SingleMuon/NANOAOD/Nano25Oct2019-v1/30000/D8C81D90-35FB-804D-AFE4-9920D70B5994.root
p1
aVroot://cms-xrdr.private.lo:2094//xrd/store/data/Run2017F/SingleMuon/NANOAOD/Nano25Oct2019-v1/30000/D90C76D5-0CAE-7149-9558-14FAB6AC2AD1.root
p2
a.