(lp0
Vroot://cms-xrdr.private.lo:2094//xrd/store/data/Run2017C/SingleMuon/NANOAOD/Nano25Oct2019-v1/230000/60564EB4-706F-9A45-93BD-891CBCC167DB.root
p1
aVroot://cms-xrdr.private.lo:2094//xrd/store/data/Run2017C/SingleMuon/NANOAOD/Nano25Oct2019-v1/230000/6CEE42F2-08B4-C941-B4EB-AFB9F1186262.root
p2
a.