(lp0
Vroot://cms-xrdr.private.lo:2094//xrd/store/data/Run2017D/SingleMuon/NANOAOD/Nano25Oct2019-v1/40000/9884F569-B1DF-1443-88FF-4A19FF718D70.root
p1
aVroot://cms-xrdr.private.lo:2094//xrd/store/data/Run2017D/SingleMuon/NANOAOD/Nano25Oct2019-v1/40000/99EDCB16-6068-2848-ACEE-0B3B7BC3AFB3.root
p2
a.