(lp0
Vroot://cms-xrdr.private.lo:2094//xrd/store/data/Run2017F/SingleMuon/NANOAOD/Nano25Oct2019-v1/30000/67648BAC-C6AA-5B4A-8B23-68BE56FA50F0.root
p1
aVroot://cms-xrdr.private.lo:2094//xrd/store/data/Run2017F/SingleMuon/NANOAOD/Nano25Oct2019-v1/30000/6976CBBB-4422-0A4B-8EFE-A1EF8D9709BA.root
p2
a.