(lp0
Vroot://cms-xrdr.private.lo:2094//xrd/store/data/Run2017D/SingleMuon/NANOAOD/Nano25Oct2019-v1/40000/299F3199-F7BE-5740-B7B9-A6760C94BAAA.root
p1
aVroot://cms-xrdr.private.lo:2094//xrd/store/data/Run2017D/SingleMuon/NANOAOD/Nano25Oct2019-v1/40000/2E8BC1A6-2DFB-794C-AF07-ACA01D9A40B0.root
p2
a.