(lp0
Vroot://cms-xrdr.private.lo:2094//xrd/store/data/Run2017E/SingleMuon/NANOAOD/Nano25Oct2019-v1/30000/04AD57CF-EB26-8E45-A01B-F11BE1E94225.root
p1
aVroot://cms-xrdr.private.lo:2094//xrd/store/data/Run2017E/SingleMuon/NANOAOD/Nano25Oct2019-v1/30000/0B798D50-49F2-1940-88A0-C4AF9EA7E0BC.root
p2
a.