(lp0
Vroot://cms-xrdr.private.lo:2094//xrd/store/data/Run2017C/SingleMuon/NANOAOD/Nano25Oct2019-v1/230000/5E32DF47-44E8-BB42-9F40-7BE57109F8B8.root
p1
aVroot://cms-xrdr.private.lo:2094//xrd/store/data/Run2017C/SingleMuon/NANOAOD/Nano25Oct2019-v1/230000/5FCF1127-400F-D040-AD3F-2D0505CDB225.root
p2
a.