(lp0
Vroot://cms-xrdr.private.lo:2094//xrd/store/data/Run2017C/SingleMuon/NANOAOD/Nano25Oct2019-v1/230000/23D81B9B-3CE3-E94A-A8D3-5D2A607BC67B.root
p1
aVroot://cms-xrdr.private.lo:2094//xrd/store/data/Run2017C/SingleMuon/NANOAOD/Nano25Oct2019-v1/230000/24B261AD-7A0F-194C-AD17-8AF3D18ED28D.root
p2
a.