(lp0
Vroot://cms-xrdr.private.lo:2094//xrd/store/data/Run2017F/SingleMuon/NANOAOD/Nano25Oct2019-v1/30000/E5159010-46E0-E349-A584-AE2AFF74632D.root
p1
aVroot://cms-xrdr.private.lo:2094//xrd/store/data/Run2017F/SingleMuon/NANOAOD/Nano25Oct2019-v1/30000/E5AD7C16-572A-8D47-A1CF-40B4B6F4F3A2.root
p2
a.