(lp0
Vroot://cms-xrdr.private.lo:2094//xrd/store/data/Run2017F/SingleMuon/NANOAOD/Nano25Oct2019-v1/30000/9CE4B16A-0AE7-6743-BB0A-D008BA542EC1.root
p1
aVroot://cms-xrdr.private.lo:2094//xrd/store/data/Run2017F/SingleMuon/NANOAOD/Nano25Oct2019-v1/30000/9E6EA021-A0AA-BB49-9CC7-65410C4FAAF1.root
p2
a.