(lp0
Vroot://cms-xrdr.private.lo:2094//xrd/store/data/Run2017F/SingleMuon/NANOAOD/Nano25Oct2019-v1/30000/F3CF7522-2FCB-164C-B92F-465DD9E2BE7A.root
p1
aVroot://cms-xrdr.private.lo:2094//xrd/store/data/Run2017F/SingleMuon/NANOAOD/Nano25Oct2019-v1/30000/F50A027D-8B69-E84E-8D7E-C314D0E4EF8C.root
p2
a.