(lp0
Vroot://cms-xrdr.private.lo:2094//xrd/store/data/Run2017F/SingleMuon/NANOAOD/Nano25Oct2019-v1/30000/4338FC48-6633-7741-BD01-22AC5A4A2ADA.root
p1
aVroot://cms-xrdr.private.lo:2094//xrd/store/data/Run2017F/SingleMuon/NANOAOD/Nano25Oct2019-v1/30000/43703C9B-7D48-FF45-8DAB-4BFBD211D54E.root
p2
a.