(lp0
Vroot://cms-xrdr.private.lo:2094//xrd/store/data/Run2017C/SingleMuon/NANOAOD/Nano25Oct2019-v1/230000/E2348E07-C6F2-F147-ACDC-C0413D8C8FF2.root
p1
aVroot://cms-xrdr.private.lo:2094//xrd/store/data/Run2017C/SingleMuon/NANOAOD/Nano25Oct2019-v1/230000/E48E369C-D913-784D-814C-8847720EBB15.root
p2
a.