(lp0
Vroot://cms-xrdr.private.lo:2094//xrd/store/data/Run2017F/SingleMuon/NANOAOD/Nano25Oct2019-v1/30000/A8A65880-2C36-E34C-93D2-97B7C4E03595.root
p1
aVroot://cms-xrdr.private.lo:2094//xrd/store/data/Run2017F/SingleMuon/NANOAOD/Nano25Oct2019-v1/30000/A9FF8C0B-2ABC-1E42-BF9A-A205E23BC3A3.root
p2
a.