(lp0
Vroot://cms-xrdr.private.lo:2094//xrd/store/data/Run2017B/SingleMuon/NANOAOD/Nano25Oct2019-v1/40000/21027519-8C33-F141-B8B9-5FD7EC3725CB.root
p1
aVroot://cms-xrdr.private.lo:2094//xrd/store/data/Run2017B/SingleMuon/NANOAOD/Nano25Oct2019-v1/40000/2D98B738-8CA0-CD4C-AC67-741213876778.root
p2
a.