(lp0
Vroot://cms-xrdr.private.lo:2094//xrd/store/data/Run2017C/SingleMuon/NANOAOD/Nano25Oct2019-v1/230000/78BED364-3403-2E47-B818-46E91AF9657D.root
p1
aVroot://cms-xrdr.private.lo:2094//xrd/store/data/Run2017C/SingleMuon/NANOAOD/Nano25Oct2019-v1/230000/78E68BE9-ACD6-BC4A-9AF2-D98F76C5E94F.root
p2
a.