(lp0
Vroot://cms-xrdr.private.lo:2094//xrd/store/data/Run2017D/SingleMuon/NANOAOD/Nano25Oct2019-v1/40000/1C129ADC-07B4-3749-8C2C-C0600F33CE1E.root
p1
aVroot://cms-xrdr.private.lo:2094//xrd/store/data/Run2017D/SingleMuon/NANOAOD/Nano25Oct2019-v1/40000/221DF632-55FC-9046-8EDC-1F32273F51D8.root
p2
a.