(lp0
Vroot://cms-xrdr.private.lo:2094//xrd/store/data/Run2017C/SingleMuon/NANOAOD/Nano25Oct2019-v1/230000/C07F2625-F7D6-7B40-BCB7-80B8C8D3DB5D.root
p1
aVroot://cms-xrdr.private.lo:2094//xrd/store/data/Run2017C/SingleMuon/NANOAOD/Nano25Oct2019-v1/230000/C938BAC1-C706-4C47-A84A-A3D66D33BAFC.root
p2
a.