(lp0
Vroot://cms-xrdr.private.lo:2094//xrd/store/data/Run2017F/SingleMuon/NANOAOD/Nano25Oct2019-v1/30000/1843B4A8-D9BB-C240-B998-8BA4A2182C81.root
p1
aVroot://cms-xrdr.private.lo:2094//xrd/store/data/Run2017F/SingleMuon/NANOAOD/Nano25Oct2019-v1/30000/1C764D1D-C13A-7446-8C3D-232FAD9CBB91.root
p2
a.