(lp0
Vroot://cms-xrdr.private.lo:2094//xrd/store/data/Run2017B/SingleMuon/NANOAOD/Nano25Oct2019-v1/40000/0708893E-82A7-3C4F-AB40-C2C8DEB2710C.root
p1
aVroot://cms-xrdr.private.lo:2094//xrd/store/data/Run2017B/SingleMuon/NANOAOD/Nano25Oct2019-v1/40000/084B0484-A176-4243-B4F3-EAF31A7A2D40.root
p2
a.