(lp0
Vroot://cms-xrdr.private.lo:2094//xrd/store/data/Run2017D/SingleMuon/NANOAOD/Nano25Oct2019-v1/40000/87406757-07CD-DE4F-A230-8D0B120577AA.root
p1
aVroot://cms-xrdr.private.lo:2094//xrd/store/data/Run2017D/SingleMuon/NANOAOD/Nano25Oct2019-v1/40000/8AC76CB1-F85E-BF4E-AF34-98D78878EED4.root
p2
a.