(lp0
Vroot://cms-xrdr.private.lo:2094//xrd/store/data/Run2017F/SingleMuon/NANOAOD/Nano25Oct2019-v1/40000/40F6CA82-7DC6-804D-9FCE-BAFD17F0E26D.root
p1
aVroot://cms-xrdr.private.lo:2094//xrd/store/data/Run2017F/SingleMuon/NANOAOD/Nano25Oct2019-v1/40000/5A9B560B-FF19-BB4E-AFB2-98BD96F3CFBC.root
p2
a.