(lp0
Vroot://cms-xrdr.private.lo:2094//xrd/store/data/Run2017D/SingleMuon/NANOAOD/Nano25Oct2019-v1/40000/5F0C5C9A-6D09-A549-9812-FE55CCC793CC.root
p1
aVroot://cms-xrdr.private.lo:2094//xrd/store/data/Run2017D/SingleMuon/NANOAOD/Nano25Oct2019-v1/40000/6C9EC4EB-7756-344B-A405-CA670DE783A9.root
p2
a.