(lp0
Vroot://cms-xrdr.private.lo:2094//xrd/store/data/Run2017B/SingleMuon/NANOAOD/Nano25Oct2019-v1/40000/9C0E2E8E-EC50-8A43-B662-4BD737223810.root
p1
aVroot://cms-xrdr.private.lo:2094//xrd/store/data/Run2017B/SingleMuon/NANOAOD/Nano25Oct2019-v1/40000/A4C52FF6-3155-704C-83D8-0A614F4B47BD.root
p2
a.