(lp0
Vroot://cms-xrdr.private.lo:2094//xrd/store/data/Run2017C/SingleMuon/NANOAOD/Nano25Oct2019-v1/230000/9AEB0B7D-7F5E-1C45-9FDA-B2D0C48FB5A5.root
p1
aVroot://cms-xrdr.private.lo:2094//xrd/store/data/Run2017C/SingleMuon/NANOAOD/Nano25Oct2019-v1/230000/9B05B6D9-90F4-104A-BDEA-35D8852268F3.root
p2
a.