(lp0
Vroot://cms-xrdr.private.lo:2094//xrd/store/data/Run2017E/SingleMuon/NANOAOD/Nano25Oct2019-v1/30000/490F6893-7D7F-DF4D-B42B-A9BD3DE51165.root
p1
aVroot://cms-xrdr.private.lo:2094//xrd/store/data/Run2017E/SingleMuon/NANOAOD/Nano25Oct2019-v1/30000/4BA88F94-1E3D-684E-8426-8D1FEDC673B5.root
p2
a.