(lp0
Vroot://cms-xrdr.private.lo:2094//xrd/store/data/Run2017F/SingleMuon/NANOAOD/Nano25Oct2019-v1/30000/76B4755A-0F9F-9247-A91A-F1B4A51A41B6.root
p1
aVroot://cms-xrdr.private.lo:2094//xrd/store/data/Run2017F/SingleMuon/NANOAOD/Nano25Oct2019-v1/30000/770368D9-6886-E54D-8C0A-51CFDE92E2FB.root
p2
a.