(lp0
Vroot://cms-xrdr.private.lo:2094//xrd/store/data/Run2017C/SingleMuon/NANOAOD/Nano25Oct2019-v1/230000/29CB678D-356D-2C49-BF0A-9A9629A7C282.root
p1
aVroot://cms-xrdr.private.lo:2094//xrd/store/data/Run2017C/SingleMuon/NANOAOD/Nano25Oct2019-v1/230000/2AAB0036-A8B6-2244-B0A1-539368BD8C82.root
p2
a.