(lp0
Vroot://cms-xrdr.private.lo:2094//xrd/store/data/Run2017B/SingleMuon/NANOAOD/Nano25Oct2019-v1/40000/4CD3D1C6-5016-C04B-809E-AE4FBB5A65F0.root
p1
aVroot://cms-xrdr.private.lo:2094//xrd/store/data/Run2017B/SingleMuon/NANOAOD/Nano25Oct2019-v1/40000/4D845710-CAE0-0D42-803A-6FFDDAF97118.root
p2
a.