(lp0
Vroot://cms-xrdr.private.lo:2094//xrd/store/data/Run2017D/SingleMuon/NANOAOD/Nano25Oct2019-v1/40000/D401AD62-D60D-8448-996D-0A49A3EAB4B5.root
p1
aVroot://cms-xrdr.private.lo:2094//xrd/store/data/Run2017D/SingleMuon/NANOAOD/Nano25Oct2019-v1/40000/D5B1BA4E-1AAF-D749-AB95-B3B95C7A4CAD.root
p2
a.