(lp0
Vroot://cms-xrdr.private.lo:2094//xrd/store/data/Run2017C/SingleMuon/NANOAOD/Nano25Oct2019-v1/230000/CF9ACD04-12FF-7C42-9A99-DD71BDB32EE7.root
p1
aVroot://cms-xrdr.private.lo:2094//xrd/store/data/Run2017C/SingleMuon/NANOAOD/Nano25Oct2019-v1/230000/D2BDE2C0-E45E-3F48-BE86-F8BDA4BAD5E0.root
p2
a.