(lp0
Vroot://cms-xrdr.private.lo:2094//xrd/store/data/Run2017C/SingleMuon/NANOAOD/Nano25Oct2019-v1/230000/CCB7AA2F-7FB1-3649-A1FD-85720A7BF120.root
p1
aVroot://cms-xrdr.private.lo:2094//xrd/store/data/Run2017C/SingleMuon/NANOAOD/Nano25Oct2019-v1/230000/CE6B4283-7629-A141-A2A2-8DA649C12B77.root
p2
a.