(lp0
Vroot://cms-xrdr.private.lo:2094//xrd/store/data/Run2017C/SingleMuon/NANOAOD/Nano25Oct2019-v1/230000/EDA3282B-E3C3-0E4C-ABFF-A86840208853.root
p1
aVroot://cms-xrdr.private.lo:2094//xrd/store/data/Run2017C/SingleMuon/NANOAOD/Nano25Oct2019-v1/230000/EFA411C3-4291-DD41-8A43-7C0DC5EF45EB.root
p2
a.