(lp0
Vroot://cms-xrdr.private.lo:2094//xrd/store/data/Run2017F/SingleMuon/NANOAOD/Nano25Oct2019-v1/30000/AA63FC17-6AAE-3F4A-B340-C6A419912ECF.root
p1
aVroot://cms-xrdr.private.lo:2094//xrd/store/data/Run2017F/SingleMuon/NANOAOD/Nano25Oct2019-v1/30000/AC57B117-3EDE-7E44-984D-2F06411232B0.root
p2
a.