(lp0
Vroot://cms-xrdr.private.lo:2094//xrd/store/data/Run2017C/SingleMuon/NANOAOD/Nano25Oct2019-v1/230000/49050608-0614-AC4A-ADE0-BF93F9B81DA3.root
p1
aVroot://cms-xrdr.private.lo:2094//xrd/store/data/Run2017C/SingleMuon/NANOAOD/Nano25Oct2019-v1/230000/4B9E18F5-0656-1A47-AB4B-27EC4328A618.root
p2
a.