(lp0
Vroot://cms-xrdr.private.lo:2094//xrd/store/data/Run2017B/SingleMuon/NANOAOD/Nano25Oct2019-v1/40000/BD502F14-BE6E-2C4D-B6A7-03F2FEA484AA.root
p1
aVroot://cms-xrdr.private.lo:2094//xrd/store/data/Run2017B/SingleMuon/NANOAOD/Nano25Oct2019-v1/40000/BEC9E386-2D23-4A46-8E6B-CC89A9A7AA1C.root
p2
a.