(lp0
Vroot://cms-xrdr.private.lo:2094//xrd/store/data/Run2017E/SingleMuon/NANOAOD/Nano25Oct2019-v1/30000/C2D03472-EE60-754C-81F8-2B71CA267BF9.root
p1
aVroot://cms-xrdr.private.lo:2094//xrd/store/data/Run2017E/SingleMuon/NANOAOD/Nano25Oct2019-v1/30000/C7144C8A-ECD9-8B4A-AF01-24FFEB2B732E.root
p2
a.