(lp0
Vroot://cms-xrdr.private.lo:2094//xrd/store/data/Run2017E/SingleMuon/NANOAOD/Nano25Oct2019-v1/30000/D9A9483A-37CC-F142-8F8F-C78DD105C481.root
p1
aVroot://cms-xrdr.private.lo:2094//xrd/store/data/Run2017E/SingleMuon/NANOAOD/Nano25Oct2019-v1/30000/DB27E843-EDAE-6642-A00F-D1BADC60C8A5.root
p2
a.