(lp0
Vroot://cms-xrdr.private.lo:2094//xrd/store/data/Run2017E/SingleMuon/NANOAOD/Nano25Oct2019-v1/260000/59E5CD74-66BB-AB4C-B346-9DD4FD16C9FF.root
p1
aVroot://cms-xrdr.private.lo:2094//xrd/store/data/Run2017E/SingleMuon/NANOAOD/Nano25Oct2019-v1/260000/62D5A3BC-EF6F-4541-BF3C-E7F8CEA2ABA8.root
p2
a.