(lp0
Vroot://cms-xrdr.private.lo:2094//xrd/store/data/Run2017D/SingleMuon/NANOAOD/Nano25Oct2019-v1/40000/8B0D4C6E-6A4E-0843-8D19-A1C1260B681F.root
p1
aVroot://cms-xrdr.private.lo:2094//xrd/store/data/Run2017D/SingleMuon/NANOAOD/Nano25Oct2019-v1/40000/90AC1293-C61D-3946-B4C8-D52DA6A80EB9.root
p2
a.