(lp0
Vroot://cms-xrdr.private.lo:2094//xrd/store/data/Run2017F/SingleMuon/NANOAOD/Nano25Oct2019-v1/30000/B34C002B-82C2-5149-9A7E-1DFA3834396B.root
p1
aVroot://cms-xrdr.private.lo:2094//xrd/store/data/Run2017F/SingleMuon/NANOAOD/Nano25Oct2019-v1/30000/B72349DD-34BF-4D46-82A2-BF91B0D7746C.root
p2
a.