(lp0
Vroot://cms-xrdr.private.lo:2094//xrd/store/data/Run2017E/SingleMuon/NANOAOD/Nano25Oct2019-v1/260000/6C840F28-479C-B04E-9A80-02C2577D187A.root
p1
aVroot://cms-xrdr.private.lo:2094//xrd/store/data/Run2017E/SingleMuon/NANOAOD/Nano25Oct2019-v1/260000/77680A1B-E822-8643-B515-DDBA9BB4D753.root
p2
a.