(lp0
Vroot://cms-xrdr.private.lo:2094//xrd/store/data/Run2017E/SingleMuon/NANOAOD/Nano25Oct2019-v1/30000/A21FB51E-7C52-0F4C-9DF8-C3B0058DED3F.root
p1
aVroot://cms-xrdr.private.lo:2094//xrd/store/data/Run2017E/SingleMuon/NANOAOD/Nano25Oct2019-v1/30000/A2E65C45-AF71-934D-83AC-4F0057570647.root
p2
a.