(lp0
Vroot://cms-xrdr.private.lo:2094//xrd/store/data/Run2017E/SingleMuon/NANOAOD/Nano25Oct2019-v1/30000/24FB851D-1BD2-3642-89FA-E3A9E4DED593.root
p1
aVroot://cms-xrdr.private.lo:2094//xrd/store/data/Run2017E/SingleMuon/NANOAOD/Nano25Oct2019-v1/30000/28DC9569-49C3-F744-B331-A00CA7CCF45F.root
p2
a.