(lp0
Vroot://cms-xrdr.private.lo:2094//xrd/store/data/Run2017F/SingleMuon/NANOAOD/Nano25Oct2019-v1/30000/61EDAB20-C338-3448-BCC2-7A691EF7B6DE.root
p1
aVroot://cms-xrdr.private.lo:2094//xrd/store/data/Run2017F/SingleMuon/NANOAOD/Nano25Oct2019-v1/30000/634F9EC0-0E63-B143-BF99-9427B2D0E30F.root
p2
a.