(lp0
Vroot://cms-xrdr.private.lo:2094//xrd/store/data/Run2017C/SingleMuon/NANOAOD/Nano25Oct2019-v1/230000/D31E707D-1A9E-6A44-A9FC-3498E4ED9229.root
p1
aVroot://cms-xrdr.private.lo:2094//xrd/store/data/Run2017C/SingleMuon/NANOAOD/Nano25Oct2019-v1/230000/D3696BE9-67D9-CA4B-8CD3-CA9C6F76F4BD.root
p2
a.