(lp0
Vroot://cms-xrdr.private.lo:2094//xrd/store/data/Run2017D/SingleMuon/NANOAOD/Nano25Oct2019-v1/40000/3E0170C1-9D76-E64D-A923-2B9E1A9AE1B3.root
p1
aVroot://cms-xrdr.private.lo:2094//xrd/store/data/Run2017D/SingleMuon/NANOAOD/Nano25Oct2019-v1/40000/401CDE04-5719-CE41-972C-8885D7A5BFE6.root
p2
a.