(lp0
Vroot://cms-xrdr.private.lo:2094//xrd/store/data/Run2017F/SingleMuon/NANOAOD/Nano25Oct2019-v1/30000/0CDA78E0-001E-A549-8F24-F47E3F1A0B9F.root
p1
aVroot://cms-xrdr.private.lo:2094//xrd/store/data/Run2017F/SingleMuon/NANOAOD/Nano25Oct2019-v1/30000/0F253858-1F9D-ED42-843B-7BBCA5070B32.root
p2
a.