(lp0
Vroot://cms-xrdr.private.lo:2094//xrd/store/data/Run2017C/SingleMuon/NANOAOD/Nano25Oct2019-v1/230000/7EC36DCB-4A90-D840-A0A5-642E7CF7A47E.root
p1
aVroot://cms-xrdr.private.lo:2094//xrd/store/data/Run2017C/SingleMuon/NANOAOD/Nano25Oct2019-v1/230000/7F46FD75-49BA-5C47-A7C9-53642338533C.root
p2
a.