(lp0
Vroot://cms-xrdr.private.lo:2094//xrd/store/data/Run2017E/SingleMuon/NANOAOD/Nano25Oct2019-v1/30000/ADDE5452-8828-7047-94A6-263966F0BA40.root
p1
aVroot://cms-xrdr.private.lo:2094//xrd/store/data/Run2017E/SingleMuon/NANOAOD/Nano25Oct2019-v1/30000/AF66AE9C-56F6-EB4F-8A4B-18E133D0D743.root
p2
a.