(lp0
Vroot://cms-xrdr.private.lo:2094//xrd/store/data/Run2017E/SingleMuon/NANOAOD/Nano25Oct2019-v1/260000/BC13B986-D242-A64E-BBAB-DC95888D30C1.root
p1
aVroot://cms-xrdr.private.lo:2094//xrd/store/data/Run2017E/SingleMuon/NANOAOD/Nano25Oct2019-v1/260000/D02E1ABC-6C51-994D-9B4C-DF2DF92649C4.root
p2
a.