(lp0
Vroot://cms-xrdr.private.lo:2094//xrd/store/data/Run2017F/SingleMuon/NANOAOD/Nano25Oct2019-v1/30000/23465228-1FEA-7947-8626-6D3CED04C4B2.root
p1
aVroot://cms-xrdr.private.lo:2094//xrd/store/data/Run2017F/SingleMuon/NANOAOD/Nano25Oct2019-v1/30000/2658EEEB-FEFD-4547-9BC8-E6245E17E2AC.root
p2
a.