(lp0
Vroot://cms-xrdr.private.lo:2094//xrd/store/data/Run2017D/SingleMuon/NANOAOD/Nano25Oct2019-v1/40000/A2990402-D5D5-724A-8F51-3189E7027314.root
p1
aVroot://cms-xrdr.private.lo:2094//xrd/store/data/Run2017D/SingleMuon/NANOAOD/Nano25Oct2019-v1/40000/A3CDF3FB-FB7B-7943-A26A-DBACAFFC224A.root
p2
a.