(lp0
Vroot://cms-xrdr.private.lo:2094//xrd/store/data/Run2017F/SingleMuon/NANOAOD/Nano25Oct2019-v1/30000/09B5158F-8D9C-D344-9D89-8ED4C70DF842.root
p1
aVroot://cms-xrdr.private.lo:2094//xrd/store/data/Run2017F/SingleMuon/NANOAOD/Nano25Oct2019-v1/30000/0ADDC770-61D4-B74E-967E-33E245B6FF90.root
p2
a.