(lp0
Vroot://cms-xrdr.private.lo:2094//xrd/store/data/Run2017D/SingleMuon/NANOAOD/Nano25Oct2019-v1/40000/51736EC2-8626-5D45-B535-4C7CF6EBDD0C.root
p1
aVroot://cms-xrdr.private.lo:2094//xrd/store/data/Run2017D/SingleMuon/NANOAOD/Nano25Oct2019-v1/40000/5197F5D5-783E-4147-9970-5D724E50C8F4.root
p2
a.