(lp0
Vroot://cms-xrdr.private.lo:2094//xrd/store/data/Run2017E/SingleMuon/NANOAOD/Nano25Oct2019-v1/30000/7F43800B-56C1-CE4C-ACA4-44AC28078BF8.root
p1
aVroot://cms-xrdr.private.lo:2094//xrd/store/data/Run2017E/SingleMuon/NANOAOD/Nano25Oct2019-v1/30000/7FA5D7F0-A5A0-314F-8D42-D3F5BBBFB690.root
p2
a.