(lp0
Vroot://cms-xrdr.private.lo:2094//xrd/store/data/Run2017B/SingleMuon/NANOAOD/Nano25Oct2019-v1/40000/84F6BE12-997F-544C-AA45-1D1C2279DFBD.root
p1
aVroot://cms-xrdr.private.lo:2094//xrd/store/data/Run2017B/SingleMuon/NANOAOD/Nano25Oct2019-v1/40000/85878E01-A96A-6E47-ACCA-DDA918FE659B.root
p2
a.