(lp0
Vroot://cms-xrdr.private.lo:2094//xrd/store/data/Run2017E/SingleMuon/NANOAOD/Nano25Oct2019-v1/30000/5D9B2B7E-EE6D-804A-BDBE-C815D194D8FB.root
p1
aVroot://cms-xrdr.private.lo:2094//xrd/store/data/Run2017E/SingleMuon/NANOAOD/Nano25Oct2019-v1/30000/5F20D811-0409-6240-8ECA-C3EADC9A40B3.root
p2
a.