(lp0
Vroot://cms-xrdr.private.lo:2094//xrd/store/data/Run2017B/SingleMuon/NANOAOD/Nano25Oct2019-v1/40000/76033DEB-BDAE-3A47-9586-54CFAD7A89DC.root
p1
aVroot://cms-xrdr.private.lo:2094//xrd/store/data/Run2017B/SingleMuon/NANOAOD/Nano25Oct2019-v1/40000/77DA5897-CBCC-4847-B09C-F8570F99FC6D.root
p2
a.