(lp0
Vroot://cms-xrdr.private.lo:2094//xrd/store/data/Run2017E/SingleMuon/NANOAOD/Nano25Oct2019-v1/30000/03DAA2D9-ADDE-A948-A2D1-9E59A800D109.root
p1
aVroot://cms-xrdr.private.lo:2094//xrd/store/data/Run2017E/SingleMuon/NANOAOD/Nano25Oct2019-v1/30000/03FD3F2C-9287-9647-94D0-9B76A519F9B3.root
p2
a.