(lp0
Vroot://cms-xrdr.private.lo:2094//xrd/store/data/Run2017D/SingleMuon/NANOAOD/Nano25Oct2019-v1/40000/DD4F501B-72E6-594F-A4AB-ED7DD97A5649.root
p1
aVroot://cms-xrdr.private.lo:2094//xrd/store/data/Run2017D/SingleMuon/NANOAOD/Nano25Oct2019-v1/40000/E00FE5DD-7E8C-4046-8F1F-30F851EEABEA.root
p2
a.