(lp0
Vroot://cms-xrdr.private.lo:2094//xrd/store/data/Run2017E/SingleMuon/NANOAOD/Nano25Oct2019-v1/30000/3246ACEE-B8B2-C34F-A268-61B0269CE1A6.root
p1
aVroot://cms-xrdr.private.lo:2094//xrd/store/data/Run2017E/SingleMuon/NANOAOD/Nano25Oct2019-v1/30000/34A667B7-92FE-3546-95E1-B9FCF6A999F1.root
p2
a.