(lp0
Vroot://cms-xrdr.private.lo:2094//xrd/store/mc/RunIISummer16NanoAODv7/GluGluToHHTo2B2VTo2L2Nu_node_SM_13TeV-madgraph-v2/NANOAODSIM/PUMoriond17_Nano02Apr2020_102X_mcRun2_asymptotic_v8-v1/130000/64365B41-751A-7B4B-836B-DB4258390231.root
p1
aVroot://cms-xrdr.private.lo:2094//xrd/store/mc/RunIISummer16NanoAODv7/GluGluToHHTo2B2VTo2L2Nu_node_SM_13TeV-madgraph-v2/NANOAODSIM/PUMoriond17_Nano02Apr2020_102X_mcRun2_asymptotic_v8-v1/130000/BC8BEF91-F53A-A641-BB54-EFF05EDD6CB4.root
p2
a.