(lp0
Vroot://cms-xrdr.private.lo:2094//xrd/store/mc/RunIISummer16NanoAODv7/TTToSemiLeptonic_TuneCP5_PSweights_13TeV-powheg-pythia8/NANOAODSIM/PUMoriond17_Nano02Apr2020_102X_mcRun2_asymptotic_v8-v1/130000/ED3CAC1E-1A59-5E46-981A-D1927A9F0EE2.root
p1
a.