(lp0
Vroot://cms-xrdr.private.lo:2094//xrd/store/mc/RunIISummer16NanoAODv7/TTToSemiLeptonic_TuneCP5_PSweights_13TeV-powheg-pythia8/NANOAODSIM/PUMoriond17_Nano02Apr2020_102X_mcRun2_asymptotic_v8-v1/110000/26FB2260-D841-9442-A8CF-3A3C42E13CC4.root
p1
aVroot://cms-xrdr.private.lo:2094//xrd/store/mc/RunIISummer16NanoAODv7/TTToSemiLeptonic_TuneCP5_PSweights_13TeV-powheg-pythia8/NANOAODSIM/PUMoriond17_Nano02Apr2020_102X_mcRun2_asymptotic_v8-v1/110000/2822657E-56A3-024E-AB10-4A3F2794AF53.root
p2
aVroot://cms-xrdr.private.lo:2094//xrd/store/mc/RunIISummer16NanoAODv7/TTToSemiLeptonic_TuneCP5_PSweights_13TeV-powheg-pythia8/NANOAODSIM/PUMoriond17_Nano02Apr2020_102X_mcRun2_asymptotic_v8-v1/110000/535F0394-7FDA-7C43-AC2B-C86F09EEA2AF.root
p3
aVroot://cms-xrdr.private.lo:2094//xrd/store/mc/RunIISummer16NanoAODv7/TTToSemiLeptonic_TuneCP5_PSweights_13TeV-powheg-pythia8/NANOAODSIM/PUMoriond17_Nano02Apr2020_102X_mcRun2_asymptotic_v8-v1/110000/55D6AB27-BC61-1144-B4CD-3662E52610B7.root
p4
a.