(lp0
Vroot://cms-xrdr.private.lo:2094//xrd/store/data/Run2017E/DoubleMuon/NANOAOD/Nano1June2019-v1/30000/48E59112-21F7-F646-BCF9-B52F0CCEE02B.root
p1
aVroot://cms-xrdr.private.lo:2094//xrd/store/data/Run2017E/DoubleMuon/NANOAOD/Nano1June2019-v1/30000/4CC67617-21CE-4741-82A6-D55D63C8126A.root
p2
a.