(lp0
Vroot://cms-xrdr.private.lo:2094//xrd/store/data/Run2017C/DoubleMuon/NANOAOD/Nano1June2019-v1/70000/7B7C829B-4464-D14F-AAFC-FE5C87ED6A45.root
p1
aVroot://cms-xrdr.private.lo:2094//xrd/store/data/Run2017C/DoubleMuon/NANOAOD/Nano1June2019-v1/70000/82079157-DB8F-BF46-8D68-B2FCE64D8BDB.root
p2
a.