(lp0
Vroot://cms-xrdr.private.lo:2094//xrd/store/data/Run2017C/DoubleMuon/NANOAOD/Nano1June2019-v1/70000/AE6442C8-29E1-2248-B9F9-779E43BA37D6.root
p1
aVroot://cms-xrdr.private.lo:2094//xrd/store/data/Run2017C/DoubleMuon/NANOAOD/Nano1June2019-v1/70000/BADC2B4D-D728-9943-81FE-967BDE8C8A74.root
p2
a.