(lp0
Vroot://cms-xrdr.private.lo:2094//xrd/store/data/Run2017F/DoubleMuon/NANOAOD/Nano1June2019-v1/40000/A5DF5DA2-BEC8-834C-9ACA-ECC65F738248.root
p1
aVroot://cms-xrdr.private.lo:2094//xrd/store/data/Run2017F/DoubleMuon/NANOAOD/Nano1June2019-v1/40000/A7C2F08B-2FE1-B847-8692-1CE5F74A359C.root
p2
a.