(lp0
Vroot://cms-xrdr.private.lo:2094//xrd/store/data/Run2017F/DoubleMuon/NANOAOD/Nano1June2019-v1/40000/11C7E26D-D11D-2343-819C-72D26B279D3F.root
p1
aVroot://cms-xrdr.private.lo:2094//xrd/store/data/Run2017F/DoubleMuon/NANOAOD/Nano1June2019-v1/40000/186A87CE-7E7C-B046-AE6D-3BA5D6C22427.root
p2
a.