(lp0
Vroot://cms-xrdr.private.lo:2094//xrd/store/data/Run2017B/DoubleMuon/NANOAOD/Nano1June2019-v1/70000/8BA8C6B8-0A33-0348-BF7C-FC9B8CC5ABAC.root
p1
aVroot://cms-xrdr.private.lo:2094//xrd/store/data/Run2017B/DoubleMuon/NANOAOD/Nano1June2019-v1/70000/B0842AFA-CC11-0A4E-BD1C-3D1633442AFB.root
p2
a.