(lp0
Vroot://cms-xrdr.private.lo:2094//xrd/store/data/Run2017C/DoubleMuon/NANOAOD/Nano1June2019-v1/70000/CE67411A-7393-3B42-89F2-31493D92A4EB.root
p1
aVroot://cms-xrdr.private.lo:2094//xrd/store/data/Run2017C/DoubleMuon/NANOAOD/Nano1June2019-v1/70000/CFEC0419-1C15-7747-ACE4-5CEB9EA3D0A1.root
p2
a.