(lp0
Vroot://cms-xrdr.private.lo:2094//xrd/store/data/Run2017F/DoubleMuon/NANOAOD/Nano1June2019-v1/40000/7674FA3E-1FE9-E849-9145-8B0323AAFB4C.root
p1
aVroot://cms-xrdr.private.lo:2094//xrd/store/data/Run2017F/DoubleMuon/NANOAOD/Nano1June2019-v1/40000/7757BD75-8DD3-0B4E-B317-4DA444E4A8E4.root
p2
a.