(lp0
Vroot://cms-xrdr.private.lo:2094//xrd/store/data/Run2017E/DoubleMuon/NANOAOD/Nano1June2019-v1/40000/041F7DD2-AAAD-A941-8E34-C1C20E4493D9.root
p1
aVroot://cms-xrdr.private.lo:2094//xrd/store/data/Run2017E/DoubleMuon/NANOAOD/Nano1June2019-v1/40000/1C41FB3F-534D-D247-ACC9-B85788DB67DC.root
p2
a.