(lp0
Vroot://cms-xrdr.private.lo:2094//xrd/store/data/Run2017C/DoubleMuon/NANOAOD/Nano1June2019-v1/70000/8FBF61FA-1FE9-374E-8516-5B9D1E23E9D0.root
p1
aVroot://cms-xrdr.private.lo:2094//xrd/store/data/Run2017C/DoubleMuon/NANOAOD/Nano1June2019-v1/70000/A4B6A1CF-B640-8644-8CB7-526993F657FB.root
p2
a.