(lp0
Vroot://cms-xrdr.private.lo:2094//xrd/store/data/Run2017E/DoubleMuon/NANOAOD/Nano1June2019-v1/40000/439CCC21-24E2-9B4D-BC52-087932D138B4.root
p1
aVroot://cms-xrdr.private.lo:2094//xrd/store/data/Run2017E/DoubleMuon/NANOAOD/Nano1June2019-v1/40000/61988704-FD1D-5D4B-B20F-F09B12021C77.root
p2
a.