(lp0
Vroot://cms-xrdr.private.lo:2094//xrd/store/data/Run2017B/DoubleMuon/NANOAOD/Nano1June2019-v1/70000/B46F3C79-4937-F64F-87B6-EA7917353E37.root
p1
aVroot://cms-xrdr.private.lo:2094//xrd/store/data/Run2017B/DoubleMuon/NANOAOD/Nano1June2019-v1/70000/C9B892C9-7B8D-BE4C-A9CE-93CCCB016101.root
p2
a.