(lp0
Vroot://cms-xrdr.private.lo:2094//xrd/store/data/Run2017D/DoubleMuon/NANOAOD/Nano1June2019-v1/30000/4A1F9E1F-C194-0C49-A44F-4EC90267B137.root
p1
aVroot://cms-xrdr.private.lo:2094//xrd/store/data/Run2017D/DoubleMuon/NANOAOD/Nano1June2019-v1/30000/4AFC23ED-FC1C-7741-89D4-E3DEF6DD8106.root
p2
a.