(lp0
Vroot://cms-xrdr.private.lo:2094//xrd/store/data/Run2017B/DoubleMuon/NANOAOD/Nano1June2019-v1/70000/CA20D6CF-DFFF-F647-ABCA-17EF028AA548.root
p1
aVroot://cms-xrdr.private.lo:2094//xrd/store/data/Run2017B/DoubleMuon/NANOAOD/Nano1June2019-v1/70000/CB3F41CB-ACD3-4F4C-84F0-DF42008E2A1A.root
p2
a.