(lp0
Vroot://cms-xrdr.private.lo:2094//xrd/store/data/Run2017F/DoubleMuon/NANOAOD/Nano1June2019-v1/40000/4A974928-E077-1948-BBEB-5060EF0B2E2A.root
p1
aVroot://cms-xrdr.private.lo:2094//xrd/store/data/Run2017F/DoubleMuon/NANOAOD/Nano1June2019-v1/40000/4DFEA99C-3DAF-6F4C-8C95-7B6C2043FE9E.root
p2
a.