(lp0
Vroot://cms-xrdr.private.lo:2094//xrd/store/data/Run2017F/DoubleMuon/NANOAOD/Nano1June2019-v1/40000/66D0637F-152F-3F4B-BEE1-A95F0AC80434.root
p1
aVroot://cms-xrdr.private.lo:2094//xrd/store/data/Run2017F/DoubleMuon/NANOAOD/Nano1June2019-v1/40000/7094AE45-BDFF-3643-B5FE-25CBB738A1C1.root
p2
a.