(lp0
Vroot://cms-xrdr.private.lo:2094//xrd/store/data/Run2017C/DoubleMuon/NANOAOD/Nano1June2019-v1/70000/1259D7A5-F2BC-F941-A124-5A13CADA30F3.root
p1
aVroot://cms-xrdr.private.lo:2094//xrd/store/data/Run2017C/DoubleMuon/NANOAOD/Nano1June2019-v1/70000/1EB8C3BF-BDFC-764F-ABE9-932700BC4770.root
p2
a.