(lp0
Vroot://cms-xrdr.private.lo:2094//xrd/store/data/Run2017C/DoubleMuon/NANOAOD/Nano1June2019-v1/70000/05A7A993-AF93-1C47-857D-F8F83C4C5370.root
p1
aVroot://cms-xrdr.private.lo:2094//xrd/store/data/Run2017C/DoubleMuon/NANOAOD/Nano1June2019-v1/70000/06BB6516-7E0F-BF48-B368-CF2DDA7D165A.root
p2
a.