(lp0
Vroot://cms-xrdr.private.lo:2094//xrd/store/data/Run2017E/DoubleMuon/NANOAOD/Nano1June2019-v1/30000/C52AC492-4E92-E44E-931C-7B85B23082A0.root
p1
aVroot://cms-xrdr.private.lo:2094//xrd/store/data/Run2017E/DoubleMuon/NANOAOD/Nano1June2019-v1/30000/C86558DA-D0AD-0A4C-AA52-A0B909E18C58.root
p2
a.