(lp0
Vroot://cms-xrdr.private.lo:2094//xrd/store/data/Run2017E/DoubleMuon/NANOAOD/Nano1June2019-v1/40000/BF9C8E36-7737-9B42-AFBB-207F26A374B0.root
p1
aVroot://cms-xrdr.private.lo:2094//xrd/store/data/Run2017E/DoubleMuon/NANOAOD/Nano1June2019-v1/40000/CB63AD10-82B3-094A-8136-85EB09034AEE.root
p2
a.