(lp0
Vroot://cms-xrdr.private.lo:2094//xrd/store/data/Run2017F/DoubleMuon/NANOAOD/Nano1June2019-v1/40000/A9A868A5-5E92-C041-B297-3C26E2EFFDBC.root
p1
aVroot://cms-xrdr.private.lo:2094//xrd/store/data/Run2017F/DoubleMuon/NANOAOD/Nano1June2019-v1/40000/AACA81DC-D238-9D44-AB04-E59C3C391840.root
p2
a.