(lp0
Vroot://cms-xrdr.private.lo:2094//xrd/store/data/Run2017F/DoubleMuon/NANOAOD/Nano1June2019-v1/40000/7D711880-9235-F74C-BBFE-705FE30A24B9.root
p1
aVroot://cms-xrdr.private.lo:2094//xrd/store/data/Run2017F/DoubleMuon/NANOAOD/Nano1June2019-v1/40000/7DE726BB-4E48-C546-8D5B-6A7931D4A7DE.root
p2
a.