(lp0
Vroot://cms-xrdr.private.lo:2094//xrd/store/data/Run2017F/DoubleMuon/NANOAOD/Nano1June2019-v1/30000/D286A7A4-A8A9-4A45-B92A-38ABDC5DBAE4.root
p1
aVroot://cms-xrdr.private.lo:2094//xrd/store/data/Run2017F/DoubleMuon/NANOAOD/Nano1June2019-v1/40000/04D95092-543D-6948-BB7E-642179AD7DDC.root
p2
a.