(lp0
Vroot://cms-xrdr.private.lo:2094//xrd/store/data/Run2017E/DoubleMuon/NANOAOD/Nano1June2019-v1/30000/B1AA9B26-D5BC-8348-B42F-6EE8B45D07DF.root
p1
aVroot://cms-xrdr.private.lo:2094//xrd/store/data/Run2017E/DoubleMuon/NANOAOD/Nano1June2019-v1/30000/C22DAD05-ADA2-024C-85B5-583A3F707E76.root
p2
a.