(lp0
Vroot://cms-xrdr.private.lo:2094//xrd/store/data/Run2017F/DoubleMuon/NANOAOD/Nano1June2019-v1/40000/B16A09F2-05E8-5240-9971-7F6A32A83CDD.root
p1
aVroot://cms-xrdr.private.lo:2094//xrd/store/data/Run2017F/DoubleMuon/NANOAOD/Nano1June2019-v1/40000/B3015F8C-CF35-E645-BAF6-DC69E69A72DA.root
p2
a.