(lp0
Vroot://cms-xrdr.private.lo:2094//xrd/store/data/Run2017E/DoubleMuon/NANOAOD/Nano1June2019-v1/30000/FA9FA978-8C89-F242-8610-BE33D18A4C2C.root
p1
aVroot://cms-xrdr.private.lo:2094//xrd/store/data/Run2017E/DoubleMuon/NANOAOD/Nano1June2019-v1/40000/000AA47D-5CE0-434E-ADAA-3920EC6C4052.root
p2
a.