(lp0
Vroot://cms-xrdr.private.lo:2094//xrd/store/data/Run2017F/DoubleMuon/NANOAOD/Nano1June2019-v1/40000/30BEB3CA-D05C-FA48-9A37-62E1FE9F17B5.root
p1
aVroot://cms-xrdr.private.lo:2094//xrd/store/data/Run2017F/DoubleMuon/NANOAOD/Nano1June2019-v1/40000/3407C618-0463-7B4B-A599-8EB816790F1B.root
p2
a.