(lp0
Vroot://cms-xrdr.private.lo:2094//xrd/store/data/Run2017E/DoubleMuon/NANOAOD/Nano1June2019-v1/40000/738FB9E1-C63E-DA48-A3F9-3160AFD4C855.root
p1
aVroot://cms-xrdr.private.lo:2094//xrd/store/data/Run2017E/DoubleMuon/NANOAOD/Nano1June2019-v1/40000/927D25D7-8A44-D345-AA99-44A4FF947964.root
p2
a.