(lp0
Vroot://cms-xrdr.private.lo:2094//xrd/store/data/Run2017E/DoubleMuon/NANOAOD/Nano1June2019-v1/30000/0EB02762-702D-704D-B5B9-30574DC63630.root
p1
aVroot://cms-xrdr.private.lo:2094//xrd/store/data/Run2017E/DoubleMuon/NANOAOD/Nano1June2019-v1/30000/125F4CCB-639E-0C43-A8F4-EE97D7EB598F.root
p2
a.