(lp0
Vroot://cms-xrdr.private.lo:2094//xrd/store/data/Run2017E/DoubleMuon/NANOAOD/Nano1June2019-v1/30000/12958F63-0B44-7547-AFA6-9B0AB6D5E932.root
p1
aVroot://cms-xrdr.private.lo:2094//xrd/store/data/Run2017E/DoubleMuon/NANOAOD/Nano1June2019-v1/30000/1C962DD2-06BF-964A-9869-59D7D8DB81B0.root
p2
a.