(lp0
Vroot://cms-xrdr.private.lo:2094//xrd/store/data/Run2017F/DoubleMuon/NANOAOD/Nano1June2019-v1/40000/8841F5D3-1DD1-2C41-8DDD-B8785DF0815A.root
p1
aVroot://cms-xrdr.private.lo:2094//xrd/store/data/Run2017F/DoubleMuon/NANOAOD/Nano1June2019-v1/40000/88782210-E7AC-394D-9DFA-D7340D56F19A.root
p2
a.