(lp0
Vroot://cms-xrdr.private.lo:2094//xrd/store/data/Run2017D/DoubleMuon/NANOAOD/Nano1June2019-v1/30000/0E45868A-F234-924D-B8F2-854D82DE42AA.root
p1
aVroot://cms-xrdr.private.lo:2094//xrd/store/data/Run2017D/DoubleMuon/NANOAOD/Nano1June2019-v1/30000/1BB9901B-FF25-FE4D-9DC6-BFFBC777421A.root
p2
a.