(lp0
Vroot://cms-xrdr.private.lo:2094//xrd/store/mc/RunIIFall17NanoAODv7/ST_s-channel_4f_leptonDecays_TuneCP5_13TeV-amcatnlo-pythia8/NANOAODSIM/PU2017_12Apr2018_Nano02Apr2020_102X_mc2017_realistic_v8-v1/120000/5D1EDE56-973E-504E-BCF6-07FE882CB10B.root
p1
aVroot://cms-xrdr.private.lo:2094//xrd/store/mc/RunIIFall17NanoAODv7/ST_s-channel_4f_leptonDecays_TuneCP5_13TeV-amcatnlo-pythia8/NANOAODSIM/PU2017_12Apr2018_Nano02Apr2020_102X_mc2017_realistic_v8-v1/120000/5D2A6859-17AC-7446-AA50-9ACE29F47DFA.root
p2
aVroot://cms-xrdr.private.lo:2094//xrd/store/mc/RunIIFall17NanoAODv7/ST_s-channel_4f_leptonDecays_TuneCP5_13TeV-amcatnlo-pythia8/NANOAODSIM/PU2017_12Apr2018_Nano02Apr2020_102X_mc2017_realistic_v8-v1/120000/D1E00880-15BB-2347-838E-0D0487FAF2CA.root
p3
a.