(lp0
Vroot://cms-xrdr.private.lo:2094//xrd/store/mc/RunIIFall17NanoAODv7/TTToHadronic_TuneCP5_PSweights_13TeV-powheg-pythia8/NANOAODSIM/PU2017_12Apr2018_Nano02Apr2020_new_pmx_102X_mc2017_realistic_v8-v1/70000/65B207DC-F06D-D746-8D31-E02E02549DDA.root
p1
aVroot://cms-xrdr.private.lo:2094//xrd/store/mc/RunIIFall17NanoAODv7/TTToHadronic_TuneCP5_PSweights_13TeV-powheg-pythia8/NANOAODSIM/PU2017_12Apr2018_Nano02Apr2020_new_pmx_102X_mc2017_realistic_v8-v1/70000/6729E2D8-E20D-9748-912C-6CDEDEFE3FC2.root
p2
aVroot://cms-xrdr.private.lo:2094//xrd/store/mc/RunIIFall17NanoAODv7/TTToHadronic_TuneCP5_PSweights_13TeV-powheg-pythia8/NANOAODSIM/PU2017_12Apr2018_Nano02Apr2020_new_pmx_102X_mc2017_realistic_v8-v1/70000/68076C2F-93C2-2846-B3F7-22FCE63F4501.root
p3
aVroot://cms-xrdr.private.lo:2094//xrd/store/mc/RunIIFall17NanoAODv7/TTToHadronic_TuneCP5_PSweights_13TeV-powheg-pythia8/NANOAODSIM/PU2017_12Apr2018_Nano02Apr2020_new_pmx_102X_mc2017_realistic_v8-v1/70000/6823F974-0F04-194D-91BC-2C4AC69806D3.root
p4
a.